ccollections
defaultdict
p0
(c__builtin__
list
p1
tp2
Rp3
S'german'
p4
(lp5
Vhttps://webgate.ec.europa.eu/sr/speech/generation-allah
p6
aVhttps://webgate.ec.europa.eu/sr/speech/der-rattenpark
p7
aVhttps://webgate.ec.europa.eu/sr/speech/mensch-%C3%A4rgere-dich-nicht
p8
aVhttps://webgate.ec.europa.eu/sr/speech/der-%C3%B6sterreichische-nationalfeiertag
p9
aVhttps://webgate.ec.europa.eu/sr/speech/zukunft-der-milch-nach-der-quoteabschaffung
p10
aVhttps://webgate.ec.europa.eu/sr/speech/20-jahre-%C3%B6sterreich-der-eu
p11
aVhttps://webgate.ec.europa.eu/sr/speech/energie-sparen
p12
aVhttps://webgate.ec.europa.eu/sr/speech/aktuelle-lage-der-europ%C3%A4ischen-union
p13
aVhttps://webgate.ec.europa.eu/sr/speech/die-%C3%B6stliche-partnerschaft
p14
aVhttps://webgate.ec.europa.eu/sr/speech/innsbruck
p15
aVhttps://webgate.ec.europa.eu/sr/speech/t%C3%A4gliche-fitness
p16
aVhttps://webgate.ec.europa.eu/sr/speech/m%C3%BCllvermeidung
p17
aVhttps://webgate.ec.europa.eu/sr/speech/kaffee-zum-mitnehmen
p18
aVhttps://webgate.ec.europa.eu/sr/speech/ukraine-im-fokus
p19
aVhttps://webgate.ec.europa.eu/sr/speech/sicherheit-der-energieversorgung-der-eu
p20
aVhttps://webgate.ec.europa.eu/sr/speech/neujahrsansprache-der-bundeskanzlerin
p21
aVhttps://webgate.ec.europa.eu/sr/speech/festrede-der-bundeskanzlerin-zum-tag-der-deutschen-einheit-2014
p22
aVhttps://webgate.ec.europa.eu/sr/speech/bankenabwicklung
p23
aVhttps://webgate.ec.europa.eu/sr/speech/vorschl%C3%A4ge-zur-bankenregulierung
p24
aVhttps://webgate.ec.europa.eu/sr/speech/arbeitswelt-der-zukunft
p25
aVhttps://webgate.ec.europa.eu/sr/speech/das-wiener-kaffeehaus
p26
aVhttps://webgate.ec.europa.eu/sr/speech/5-ratschl%C3%A4ge-f%C3%BCr-das-dolmetschstudium
p27
aVhttps://webgate.ec.europa.eu/sr/speech/casinos
p28
aVhttps://webgate.ec.europa.eu/sr/speech/basel
p29
aVhttps://webgate.ec.europa.eu/sr/speech/die-schallplatte-gestern-und-heute
p30
aVhttps://webgate.ec.europa.eu/sr/speech/aktives-altern
p31
aVhttps://webgate.ec.europa.eu/sr/speech/das-wunderkind-wolfgang-amadeus-mozart
p32
aVhttps://webgate.ec.europa.eu/sr/speech/abtreibung-und-der-einfluss-der-katholischen-kirche-irland
p33
aVhttps://webgate.ec.europa.eu/sr/speech/biodiversit%C3%A4t
p34
aVhttps://webgate.ec.europa.eu/sr/speech/die-backindustrie-europa
p35
aVhttps://webgate.ec.europa.eu/sr/speech/soziale-netzwerke-machen-s%C3%BCchtig
p36
aVhttps://webgate.ec.europa.eu/sr/speech/schlafmangel
p37
aVhttps://webgate.ec.europa.eu/sr/speech/selbstfahrende-autos
p38
aVhttps://webgate.ec.europa.eu/sr/speech/macht-die-informationsgesellschaft-kl%C3%BCgere-menschen-aus-uns
p39
aVhttps://webgate.ec.europa.eu/sr/speech/trinkwasserversorgung-und-menschliche-entwicklung
p40
aVhttps://webgate.ec.europa.eu/sr/speech/world-overshoot-day
p41
aVhttps://webgate.ec.europa.eu/sr/speech/internethandel-mit-gef%C3%A4lschten-aufputschmitteln
p42
aVhttps://webgate.ec.europa.eu/sr/speech/die-abwesenheit-sozialen-netzwerken-und-die-konsequenzen
p43
aVhttps://webgate.ec.europa.eu/sr/speech/griechenland-krise-heute-und-vor-100-jahren
p44
aVhttps://webgate.ec.europa.eu/sr/speech/k%C3%BCnstliche-befruchtung
p45
aVhttps://webgate.ec.europa.eu/sr/speech/die-w%C3%B6lfe
p46
aVhttps://webgate.ec.europa.eu/sr/speech/einf%C3%BChrung-ins-dolmetschen
p47
aVhttps://webgate.ec.europa.eu/sr/speech/virtuelles-wasser
p48
aVhttps://webgate.ec.europa.eu/sr/speech/probleme-junger-m%C3%A4nner-teilen-ostdeutschlands
p49
aVhttps://webgate.ec.europa.eu/sr/speech/was-h%C3%A4lt-belgien-zusammen
p50
aVhttps://webgate.ec.europa.eu/sr/speech/die-zwei-d%C3%BCmmsten-erfindungen-der-geschichte
p51
aVhttps://webgate.ec.europa.eu/sr/speech/das-kommunikationsverhalten-von-m%C3%A4nnern-und-frauen
p52
aVhttps://webgate.ec.europa.eu/sr/speech/die-bedeutung-von-musik
p53
aVhttps://webgate.ec.europa.eu/sr/speech/wie-t%C3%A4nzer-frauenblicke-auf-sich-ziehen
p54
aVhttps://webgate.ec.europa.eu/sr/speech/die-darwin-awards
p55
aVhttps://webgate.ec.europa.eu/sr/speech/kunststoffabfall
p56
aVhttps://webgate.ec.europa.eu/sr/speech/mandarin-die-chinesische-hochsprache
p57
aVhttps://webgate.ec.europa.eu/sr/speech/embryonale-stammzellenforschung
p58
aVhttps://webgate.ec.europa.eu/sr/speech/k%C3%B6nig-juan-carlos-und-die-elefantenjagd
p59
aVhttps://webgate.ec.europa.eu/sr/speech/insekten-als-nahrungsmittel-der-zukunft
p60
aVhttps://webgate.ec.europa.eu/sr/speech/die-last-mit-den-passw%C3%B6rtern
p61
aVhttps://webgate.ec.europa.eu/sr/speech/andernach-die-essbare-stadt
p62
aVhttps://webgate.ec.europa.eu/sr/speech/die-gl%C3%BChlampenverordnung-herk%C3%B6mmliche-gl%C3%BChbirnen-vs-energiesparlampen
p63
aVhttps://webgate.ec.europa.eu/sr/speech/schenkungssteuer-deutschland
p64
aVhttps://webgate.ec.europa.eu/sr/speech/das-recht-w%C3%A4sche-im-freien-zu-trocknen
p65
aVhttps://webgate.ec.europa.eu/sr/speech/weihnachtsgeschenke
p66
aVhttps://webgate.ec.europa.eu/sr/speech/wie-erkennt-man-einen-kriminellen
p67
aVhttps://webgate.ec.europa.eu/sr/speech/der-dolmetscher
p68
aVhttps://webgate.ec.europa.eu/sr/speech/sankt-nikolaus
p69
aVhttps://webgate.ec.europa.eu/sr/speech/vielsprachigkeit-der-europ%C3%A4ischen-union
p70
aVhttps://webgate.ec.europa.eu/sr/speech/winterschlaf-eine-faszinierende-strategie
p71
aVhttps://webgate.ec.europa.eu/sr/speech/das-rezept-f%C3%BCr-eine-gl%C3%BCckliche-ehe
p72
aVhttps://webgate.ec.europa.eu/sr/speech/aids
p73
aVhttps://webgate.ec.europa.eu/sr/speech/stress
p74
aVhttps://webgate.ec.europa.eu/sr/speech/sommerzeit-winterzeit
p75
aVhttps://webgate.ec.europa.eu/sr/speech/%C3%BCbergewicht-ein-ernstes-problem-unserer-gesellschaft
p76
aVhttps://webgate.ec.europa.eu/sr/speech/wirtschaftspolitik
p77
aVhttps://webgate.ec.europa.eu/sr/speech/schweine-und-investoren
p78
aVhttps://webgate.ec.europa.eu/sr/speech/kundenkarten
p79
aVhttps://webgate.ec.europa.eu/sr/speech/profil-des-traummannes
p80
aVhttps://webgate.ec.europa.eu/sr/speech/gentechnik-4
p81
aVhttps://webgate.ec.europa.eu/sr/speech/arachnophobie-hamburg
p82
aVhttps://webgate.ec.europa.eu/sr/speech/%C3%B6kostadt-traum-oder-realit%C3%A4t
p83
aVhttps://webgate.ec.europa.eu/sr/speech/belohnungen-und-motivation
p84
aVhttps://webgate.ec.europa.eu/sr/speech/drogen-als-teil-der-gesellschaft
p85
aVhttps://webgate.ec.europa.eu/sr/speech/die-kuh-als-klimakiller
p86
aVhttps://webgate.ec.europa.eu/sr/speech/autofahren-und-unf%C3%A4lle-auf-den-stra%C3%9Fen
p87
aVhttps://webgate.ec.europa.eu/sr/speech/das-speiseeis
p88
aVhttps://webgate.ec.europa.eu/sr/speech/besonderheiten-des-kanadischen-bankensystems
p89
aVhttps://webgate.ec.europa.eu/sr/speech/das-rauchen-von-tabak
p90
aVhttps://webgate.ec.europa.eu/sr/speech/wiederaufbau-des-berliner-stadtschlosses
p91
aVhttps://webgate.ec.europa.eu/sr/speech/das-klimaph%C3%A4nomen-el-ni%C3%B1o
p92
aVhttps://webgate.ec.europa.eu/sr/speech/dolmetscher-und-tier%C3%A4rztliche-inspektionsreise
p93
aVhttps://webgate.ec.europa.eu/sr/speech/menschenopfer-bei-den-azteken
p94
aVhttps://webgate.ec.europa.eu/sr/speech/pressekonferenz-nach-dem-europ%C3%A4ischen-rat
p95
aVhttps://webgate.ec.europa.eu/sr/speech/die-gap-nach-der-2013-reform
p96
aVhttps://webgate.ec.europa.eu/sr/speech/bedeutung-von-sprachenlernen-f%C3%BCr-die-arbeit
p97
aVhttps://webgate.ec.europa.eu/sr/speech/zukunftstechnologien-f%C3%BCr-menschliche-und-robotische-exploration
p98
aVhttps://webgate.ec.europa.eu/sr/speech/wie-kann-europa-zu-angemessenen-und-nachhaltigen-renten-durch-aktive-und-gesunde-alterung
p99
aVhttps://webgate.ec.europa.eu/sr/speech/beratung-%C3%BCber-die-strategie-eu-2020
p100
aVhttps://webgate.ec.europa.eu/sr/speech/klimaschutzstrategien
p101
aVhttps://webgate.ec.europa.eu/sr/speech/aschewolke-%C3%BCber-europa
p102
aVhttps://webgate.ec.europa.eu/sr/speech/vulkanasche-%C3%BCber-europa
p103
aVhttps://webgate.ec.europa.eu/sr/speech/ausbruch-des-vulkans-auf-island
p104
aVhttps://webgate.ec.europa.eu/sr/speech/finanzierung-der-krankenversicherung
p105
aVhttps://webgate.ec.europa.eu/sr/speech/friedensprozess-sudan
p106
aVhttps://webgate.ec.europa.eu/sr/speech/elekromobilit%C3%A4t-teil-1-von-2
p107
aVhttps://webgate.ec.europa.eu/sr/speech/elektromobilit%C3%A4t-teil-2-von-2
p108
aVhttps://webgate.ec.europa.eu/sr/speech/wirtschaftskrise
p109
aVhttps://webgate.ec.europa.eu/sr/speech/kommunales-ausl%C3%A4nderwahlrecht
p110
aVhttps://webgate.ec.europa.eu/sr/speech/eu-strategie-2020
p111
aVhttps://webgate.ec.europa.eu/sr/speech/finanzm%C3%A4rkte-%C3%B6kologisch-ethisch-und-sozial-neu-ausrichten-teil-1-von-2
p112
aVhttps://webgate.ec.europa.eu/sr/speech/finanzm%C3%A4rkte-%C3%B6kologisch-ethisch-und-sozial-neu-ausrichten-teil-2-von-2
p113
aVhttps://webgate.ec.europa.eu/sr/speech/debatte-zu-telekommunikationsgesetz-und-vorratsdatenspeicherung-2
p114
aVhttps://webgate.ec.europa.eu/sr/speech/debatte-zu-telekommunikationsgesetz-und-vorratsdatenspeicherung-3
p115
aVhttps://webgate.ec.europa.eu/sr/speech/debatte-zu-telekommunikationsgesetz-und-vorratsdatenspeicherung
p116
aVhttps://webgate.ec.europa.eu/sr/speech/debatte-zu-telekommunikationsgesetz-und-vorratsdatenspeicherung-0
p117
aVhttps://webgate.ec.europa.eu/sr/speech/befragung-der-bundesregierung-13-bericht-zur-ausw%C3%A4rtigen-kulturpolitik-weitere-fragen-zur
p118
aVhttps://webgate.ec.europa.eu/sr/speech/die-europ%C3%A4ische-privatgesellschaft-small-business-act
p119
aVhttps://webgate.ec.europa.eu/sr/speech/erkl%C3%A4rung-der-kommission-arzneimittel-paket-teil-2-von-2
p120
aVhttps://webgate.ec.europa.eu/sr/speech/wirtschaftspartnerschaftsabkommen-zwischen-der-eu-und-der-elfenbeink%C3%BCste
p121
aVhttps://webgate.ec.europa.eu/sr/speech/wirtschaftspartnerschaftsabkommen-eu-und-akp-staaten
p122
aVhttps://webgate.ec.europa.eu/sr/speech/zukunft-der-automobilindustrie
p123
aVhttps://webgate.ec.europa.eu/sr/speech/vorbereitung-des-europ%C3%A4ischen-rates-19-und-20-m%C3%A4rz-2009-ein-europ%C3%A4isches-konjunkturprogramm
p124
aVhttps://webgate.ec.europa.eu/sr/speech/typgenehmigung-von-kraftfahrzeugen-hinsichtlich-ihrer-allgemeinen-sicherheit
p125
aVhttps://webgate.ec.europa.eu/sr/speech/typgenehmigung-von-kraftfahrzeugen-hinsichtlich-ihrer-allgemeinen-sicherheit-0
p126
aVhttps://webgate.ec.europa.eu/sr/speech/erste-lesung-des-europ%C3%A4ischen-haushalts-f%C3%BCr-2009
p127
aVhttps://webgate.ec.europa.eu/sr/speech/erkl%C3%A4rung-der-europ%C3%A4ischen-kommission-arzneimittel-paket-teil-1-von-2
p128
aVhttps://webgate.ec.europa.eu/sr/speech/scheidung-von-binationalen-ehepaaren-juristische-probleme
p129
aVhttps://webgate.ec.europa.eu/sr/speech/frauenrechte-den-balkanl%C3%A4ndern
p130
aVhttps://webgate.ec.europa.eu/sr/speech/die-lage-der-autoindustrie-der-finanzkrise
p131
aVhttps://webgate.ec.europa.eu/sr/speech/die-krisenbew%C3%A4ltigungsstrategie-der-europ%C3%A4ischen-kommission
p132
aVhttps://webgate.ec.europa.eu/sr/speech/sprachenvielfalt-der-eu
p133
aVhttps://webgate.ec.europa.eu/sr/speech/asyl-und-einwanderungsregelung-der-eu
p134
aVhttps://webgate.ec.europa.eu/sr/speech/eu-richtlinie-zur-vorratsdatenspeicherung
p135
aVhttps://webgate.ec.europa.eu/sr/speech/die-eu-und-die-krisen-im-jahr-2008
p136
aVhttps://webgate.ec.europa.eu/sr/speech/finanzausstattung-der-bundeswehr
p137
aVhttps://webgate.ec.europa.eu/sr/speech/perspektiven-der-deutschen-entwicklungspolitik
p138
aVhttps://webgate.ec.europa.eu/sr/speech/arbeit-ausbildung-und-arbeitslosigkeit
p139
aVhttps://webgate.ec.europa.eu/sr/speech/familien-die-beste-investition
p140
aVhttps://webgate.ec.europa.eu/sr/speech/umweltschutz-und-energiepolitik-teil-1-von-2
p141
aVhttps://webgate.ec.europa.eu/sr/speech/umweltschutz-und-energiepolitik-teil-2-von-2
p142
aVhttps://webgate.ec.europa.eu/sr/speech/haushaltsgesetz-2009-1
p143
aVhttps://webgate.ec.europa.eu/sr/speech/haushaltsgesetz-2009-2
p144
aVhttps://webgate.ec.europa.eu/sr/speech/haushaltsgesetz-2009
p145
aVhttps://webgate.ec.europa.eu/sr/speech/haushaltsgesetz-2009-0
p146
aVhttps://webgate.ec.europa.eu/sr/speech/deutsche-und-europ%C3%A4ische-au%C3%9Fenpolitik
p147
aVhttps://webgate.ec.europa.eu/sr/speech/verl%C3%A4ngerung-des-mandats-der-bundeswehr-der-unifil-mission-im-libanon-teil-1-von-2
p148
aVhttps://webgate.ec.europa.eu/sr/speech/verl%C3%A4ngerung-des-mandats-der-bundeswehr-der-unifil-mission-im-libanon-teil-2-von-2
p149
aVhttps://webgate.ec.europa.eu/sr/speech/die-situation-darfur-teil-1-von-2
p150
aVhttps://webgate.ec.europa.eu/sr/speech/die-situation-darfur-teil-2-von-2
p151
aVhttps://webgate.ec.europa.eu/sr/speech/bildung-und-wissenschaft
p152
aVhttps://webgate.ec.europa.eu/sr/speech/budget-f%C3%BCr-transport-und-bauwesen-einzelplan-12
p153
aVhttps://webgate.ec.europa.eu/sr/speech/gesundheitspolitik-der-bundesregierung-einzelplan-15
p154
aVhttps://webgate.ec.europa.eu/sr/speech/finanzkrise-0
p155
aVhttps://webgate.ec.europa.eu/sr/speech/haushaltsdebatte
p156
aVhttps://webgate.ec.europa.eu/sr/speech/haushaltsdebatte-0
p157
aVhttps://webgate.ec.europa.eu/sr/speech/lissabon-strategie-integrierte-leitlinien-f%C3%BCr-wachstum-und-besch%C3%A4ftigung
p158
aVhttps://webgate.ec.europa.eu/sr/speech/feierliche-sitzung-%E2%80%93-estland
p159
aVhttps://webgate.ec.europa.eu/sr/speech/preisanstieg-bei-lebensmitteln-der-europ%C3%A4ischen-union-und-den-entwicklungsl%C3%A4ndern
p160
aVhttps://webgate.ec.europa.eu/sr/speech/emu10-die-ersten-10-jahre-der-wirtschafts-und-w%C3%A4hrungsunion
p161
aVhttps://webgate.ec.europa.eu/sr/speech/transatlantischer-wirtschaftsrat
p162
aVhttps://webgate.ec.europa.eu/sr/speech/gipfeltreffen-eu-usa
p163
aVhttps://webgate.ec.europa.eu/sr/speech/eu-vertragsreform-und-ihre-folgen
p164
aVhttps://webgate.ec.europa.eu/sr/speech/steigende-nahrungsmittelpreise
p165
aVhttps://webgate.ec.europa.eu/sr/speech/der-energieverbrauch-der-internetgesellschaft
p166
aVhttps://webgate.ec.europa.eu/sr/speech/schaerbeek
p167
aVhttps://webgate.ec.europa.eu/sr/speech/namen
p168
aVhttps://webgate.ec.europa.eu/sr/speech/sitzung-des-vorstands-der-evp-ed-fraktion
p169
aVhttps://webgate.ec.europa.eu/sr/speech/der-lissabonner-vertrag
p170
aVhttps://webgate.ec.europa.eu/sr/speech/debatte-im-europ%C3%A4ischen-parlament-zur-luftqualit%C3%A4tsrichtlinie
p171
aVhttps://webgate.ec.europa.eu/sr/speech/menschenrechte-und-humanit%C3%A4re-hilfe
p172
aVhttps://webgate.ec.europa.eu/sr/speech/menschenrechte-und-humanit%C3%A4re-hilfe-0
p173
aVhttps://webgate.ec.europa.eu/sr/speech/menschenrechte-der-entwicklungszusammenarbeit
p174
aVhttps://webgate.ec.europa.eu/sr/speech/menschenrechte-und-humanit%C3%A4re-hilfe-2
p175
aVhttps://webgate.ec.europa.eu/sr/speech/kosovo-1
p176
aVhttps://webgate.ec.europa.eu/sr/speech/kosovo-2
p177
aVhttps://webgate.ec.europa.eu/sr/speech/kosovo-3
p178
aVhttps://webgate.ec.europa.eu/sr/speech/kosovo-4
p179
aVhttps://webgate.ec.europa.eu/sr/speech/anerkennung-des-kosovo-als-unabh%C3%A4ngiger-staat
p180
aVhttps://webgate.ec.europa.eu/sr/speech/kosovo-0
p181
aVhttps://webgate.ec.europa.eu/sr/speech/small-business-act-european-private-company-statute
p182
aVhttps://webgate.ec.europa.eu/sr/speech/reform-der-bundespolizei-er%C3%B6ffnung-der-anh%C3%B6rung
p183
aVhttps://webgate.ec.europa.eu/sr/speech/reform-der-bundespolizei-0
p184
aVhttps://webgate.ec.europa.eu/sr/speech/reform-der-bundespolizei-1
p185
aVhttps://webgate.ec.europa.eu/sr/speech/reform-der-bundespolizei-2
p186
aVhttps://webgate.ec.europa.eu/sr/speech/reform-der-bundespolizei-3
p187
aVhttps://webgate.ec.europa.eu/sr/speech/gentechnik
p188
aVhttps://webgate.ec.europa.eu/sr/speech/gentechnik-0
p189
aVhttps://webgate.ec.europa.eu/sr/speech/gentechnik-1
p190
aVhttps://webgate.ec.europa.eu/sr/speech/gentechnik-2
p191
aVhttps://webgate.ec.europa.eu/sr/speech/gentechnik-3
p192
aVhttps://webgate.ec.europa.eu/sr/speech/die-lage-der-finanzm%C3%A4rkte-7
p193
aVhttps://webgate.ec.europa.eu/sr/speech/finanzkrise
p194
aVhttps://webgate.ec.europa.eu/sr/speech/die-lage-der-finanzm%C3%A4rkte-6
p195
aVhttps://webgate.ec.europa.eu/sr/speech/die-lage-der-finanzm%C3%A4rkte-5
p196
aVhttps://webgate.ec.europa.eu/sr/speech/die-lage-der-finanzm%C3%A4rkte-3
p197
aVhttps://webgate.ec.europa.eu/sr/speech/die-lage-der-finanzm%C3%A4rkte-4
p198
aVhttps://webgate.ec.europa.eu/sr/speech/tagung-des-rates-umwelt
p199
aVhttps://webgate.ec.europa.eu/sr/speech/green-paper-urban-transport-teil-2-von-2
p200
aVhttps://webgate.ec.europa.eu/sr/speech/die-lage-der-finanzm%C3%A4rkte-2
p201
aVhttps://webgate.ec.europa.eu/sr/speech/green-paper-urban-transport-teil-1-von-2
p202
aVhttps://webgate.ec.europa.eu/sr/speech/rfid-towards-internet-things
p203
aVhttps://webgate.ec.europa.eu/sr/speech/internet-things
p204
aVhttps://webgate.ec.europa.eu/sr/speech/europ%C3%A4ischer-tag-der-junglandwirte
p205
aVhttps://webgate.ec.europa.eu/sr/speech/die-lage-der-finanzm%C3%A4rkte-1
p206
aVhttps://webgate.ec.europa.eu/sr/speech/beyond-gdp-measuring-progress-true-wealth-and-well-being-nations-6
p207
aVhttps://webgate.ec.europa.eu/sr/speech/f%C3%BCnfzigj%C3%A4hriges-bestehen-des-europ%C3%A4ischen-parlaments
p208
aVhttps://webgate.ec.europa.eu/sr/speech/wasser-und-wasserwirtschaft
p209
aVhttps://webgate.ec.europa.eu/sr/speech/beyond-gdp-measuring-progress-true-wealth-and-well-being-nations-8
p210
aVhttps://webgate.ec.europa.eu/sr/speech/komasaufen
p211
aVhttps://webgate.ec.europa.eu/sr/speech/%C3%B6konomische-und-politische-leitlinien-vorbereitung-des-europ%C3%A4ischen-rates
p212
aVhttps://webgate.ec.europa.eu/sr/speech/6-europ%C3%A4isches-tourismusforum
p213
aVhttps://webgate.ec.europa.eu/sr/speech/lebensmittelpreise
p214
aVhttps://webgate.ec.europa.eu/sr/speech/viertes-europ%C3%A4isches-koh%C3%A4sionsforum
p215
aVhttps://webgate.ec.europa.eu/sr/speech/%C3%BCber-die-rehabilitierung-der-opfer-des-sed-unrechts-regimes
p216
aVhttps://webgate.ec.europa.eu/sr/speech/rente-f%C3%BCr-opfer-des-ddr-regimes-0
p217
aVhttps://webgate.ec.europa.eu/sr/speech/rente-f%C3%BCr-opfer-des-ddr-regimes-1
p218
aVhttps://webgate.ec.europa.eu/sr/speech/nichtraucherpolitik
p219
aVhttps://webgate.ec.europa.eu/sr/speech/reform-der-f%C3%BChrungsaufsicht
p220
aVhttps://webgate.ec.europa.eu/sr/speech/hochschulrahmengesetz
p221
aVhttps://webgate.ec.europa.eu/sr/speech/ern%C3%A4hrungspolitik-teil-1-von-2
p222
aVhttps://webgate.ec.europa.eu/sr/speech/ern%C3%A4hrungspolitik-teil-2-von-2
p223
aVhttps://webgate.ec.europa.eu/sr/speech/gruppe-der-acht-g8-0
p224
aVhttps://webgate.ec.europa.eu/sr/speech/familien-und-kinderpolitik-0
p225
aVhttps://webgate.ec.europa.eu/sr/speech/die-lage-der-finanzm%C3%A4rkte
p226
aVhttps://webgate.ec.europa.eu/sr/speech/die-lage-der-finanzm%C3%A4rkte-0
p227
aVhttps://webgate.ec.europa.eu/sr/speech/die-lage-der-finanzm%C3%A4rkte-teil-1-von-2
p228
aVhttps://webgate.ec.europa.eu/sr/speech/die-lage-der-finanzm%C3%A4rkte-teil-2-von-2
p229
aVhttps://webgate.ec.europa.eu/sr/speech/unifil
p230
aVhttps://webgate.ec.europa.eu/sr/speech/raucherpolitik
p231
aVhttps://webgate.ec.europa.eu/sr/speech/immigration-das-deutsche-ausl%C3%A4nder-und-asylrecht
p232
aVhttps://webgate.ec.europa.eu/sr/speech/%C3%BCberwachungsmission-amis
p233
aVhttps://webgate.ec.europa.eu/sr/speech/abr%C3%BCstungspolitik
p234
aVhttps://webgate.ec.europa.eu/sr/speech/unternehmensteuerreform
p235
aVhttps://webgate.ec.europa.eu/sr/speech/gruppe-der-acht-g8
p236
aVhttps://webgate.ec.europa.eu/sr/speech/eu-gipfel-berlin-er%C3%B6ffnungsrede-jubil%C3%A4um-der-r%C3%B6mischen-vertr%C3%A4ge
p237
aVhttps://webgate.ec.europa.eu/sr/speech/eu-gipfel-berlin-jubil%C3%A4um-der-r%C3%B6mischen-vertr%C3%A4ge
p238
aVhttps://webgate.ec.europa.eu/sr/speech/eu-gipfel-berlin-teil-1-von-2-jubil%C3%A4um-der-r%C3%B6mischen-vertr%C3%A4ge
p239
aVhttps://webgate.ec.europa.eu/sr/speech/eu-gipfel-berlin-teil-2-von-2-jubil%C3%A4um-der-r%C3%B6mischen-vertr%C3%A4ge
p240
aVhttps://webgate.ec.europa.eu/sr/speech/island
p241
aVhttps://webgate.ec.europa.eu/sr/speech/kaviar
p242
aVhttps://webgate.ec.europa.eu/sr/speech/golf
p243
aVhttps://webgate.ec.europa.eu/sr/speech/allergien
p244
aVhttps://webgate.ec.europa.eu/sr/speech/wasserknappheit
p245
aVhttps://webgate.ec.europa.eu/sr/speech/fernsehen
p246
aVhttps://webgate.ec.europa.eu/sr/speech/l%C3%BCge-und-wahrheit
p247
aVhttps://webgate.ec.europa.eu/sr/speech/eu-sustainable-energy-week-teil-1-von-2
p248
aVhttps://webgate.ec.europa.eu/sr/speech/eu-sustainable-energy-week-teil-2-von-2
p249
aVhttps://webgate.ec.europa.eu/sr/speech/eu-sustainable-energy-week-2
p250
aVhttps://webgate.ec.europa.eu/sr/speech/european-water-conference-teil-1-von-2
p251
aVhttps://webgate.ec.europa.eu/sr/speech/european-water-conference-teil-2-von-2
p252
aVhttps://webgate.ec.europa.eu/sr/speech/european-road-safety-day-2007-2
p253
aVhttps://webgate.ec.europa.eu/sr/speech/m%C3%A4nnliche-schwangerschaft
p254
aVhttps://webgate.ec.europa.eu/sr/speech/europ%C3%A4ische-investitionsbank
p255
aVhttps://webgate.ec.europa.eu/sr/speech/kiwis
p256
aVhttps://webgate.ec.europa.eu/sr/speech/%C3%B6ffentliche-anh%C3%B6rung-zur-jugendkriminalit%C3%A4t
p257
aVhttps://webgate.ec.europa.eu/sr/speech/%C3%B6ffentliche-anh%C3%B6rung-zur-jugendkriminalit%C3%A4t-0
p258
aVhttps://webgate.ec.europa.eu/sr/speech/vorratsdatenspeicherung-6
p259
aVhttps://webgate.ec.europa.eu/sr/speech/aufbau-ost
p260
aVhttps://webgate.ec.europa.eu/sr/speech/aufbau-ost-0
p261
aVhttps://webgate.ec.europa.eu/sr/speech/aufbau-ost-1
p262
aVhttps://webgate.ec.europa.eu/sr/speech/aufbau-ost-2
p263
aVhttps://webgate.ec.europa.eu/sr/speech/aufbau-ost-3
p264
aVhttps://webgate.ec.europa.eu/sr/speech/vorratsdatenspeicherung-und-b%C3%BCrgerrechte
p265
aVhttps://webgate.ec.europa.eu/sr/speech/vorratsdatenspeicherung-0
p266
aVhttps://webgate.ec.europa.eu/sr/speech/vorratsdatenspeicherung-verbrechensbek%C3%A4mpfung-und-grundrechte
p267
aVhttps://webgate.ec.europa.eu/sr/speech/vorratsdatenspeicherung-2
p268
aVhttps://webgate.ec.europa.eu/sr/speech/vorratsdatenspeicherung-3
p269
aVhttps://webgate.ec.europa.eu/sr/speech/vorratsdatenspeicherung-4
p270
aVhttps://webgate.ec.europa.eu/sr/speech/vorratsdatenspeicherung-5
p271
aVhttps://webgate.ec.europa.eu/sr/speech/haushaltsberatung-0
p272
aVhttps://webgate.ec.europa.eu/sr/speech/haushaltsberatung-1
p273
aVhttps://webgate.ec.europa.eu/sr/speech/haushaltsberatung-2
p274
aVhttps://webgate.ec.europa.eu/sr/speech/mineral%C3%B6lbesteuerung
p275
asS'english'
p276
(lp277
Vhttps://webgate.ec.europa.eu/sr/speech/panama-papers
p278
aVhttps://webgate.ec.europa.eu/sr/speech/future-coal-industry
p279
aVhttps://webgate.ec.europa.eu/sr/speech/uber
p280
aVhttps://webgate.ec.europa.eu/sr/speech/factory-farming-vs-animal-welfare
p281
aVhttps://webgate.ec.europa.eu/sr/speech/protecting-marine-environment
p282
aVhttps://webgate.ec.europa.eu/sr/speech/vaccination
p283
aVhttps://webgate.ec.europa.eu/sr/speech/facebook-case
p284
aVhttps://webgate.ec.europa.eu/sr/speech/life-expectancy
p285
aVhttps://webgate.ec.europa.eu/sr/speech/transmutation-nuclear-waste-material
p286
aVhttps://webgate.ec.europa.eu/sr/speech/mothers-milk
p287
aVhttps://webgate.ec.europa.eu/sr/speech/facebook-case
p288
aVhttps://webgate.ec.europa.eu/sr/speech/volunteering
p289
aVhttps://webgate.ec.europa.eu/sr/speech/yoga-0
p290
aVhttps://webgate.ec.europa.eu/sr/speech/personal-debt-uk
p291
aVhttps://webgate.ec.europa.eu/sr/speech/future-energy
p292
aVhttps://webgate.ec.europa.eu/sr/speech/ethics-and-technology
p293
aVhttps://webgate.ec.europa.eu/sr/speech/electoral-college-us
p294
aVhttps://webgate.ec.europa.eu/sr/speech/time-banks
p295
aVhttps://webgate.ec.europa.eu/sr/speech/national-parks-us
p296
aVhttps://webgate.ec.europa.eu/sr/speech/gender-inequality-workplace
p297
aVhttps://webgate.ec.europa.eu/sr/speech/origins-language
p298
aVhttps://webgate.ec.europa.eu/sr/speech/why-are-poor-countries-poor
p299
aVhttps://webgate.ec.europa.eu/sr/speech/education-experiences-france-and-germany
p300
aVhttps://webgate.ec.europa.eu/sr/speech/overview-current-events-geopolitical-world
p301
aVhttps://webgate.ec.europa.eu/sr/speech/polio-pakistan
p302
aVhttps://webgate.ec.europa.eu/sr/speech/gun-control-united-states
p303
aVhttps://webgate.ec.europa.eu/sr/speech/prime-minister-my-vision-smarter-state
p304
aVhttps://webgate.ec.europa.eu/sr/speech/state-union
p305
aVhttps://webgate.ec.europa.eu/sr/speech/commissions-communication-refugee-crisis
p306
aVhttps://webgate.ec.europa.eu/sr/speech/conclusions-informal-european-council-23rd-september-2015
p307
aVhttps://webgate.ec.europa.eu/sr/speech/eu-trust-funds-syria-and-africa
p308
aVhttps://webgate.ec.europa.eu/sr/speech/greece-bailout-saga
p309
aVhttps://webgate.ec.europa.eu/sr/speech/future-euro-area
p310
aVhttps://webgate.ec.europa.eu/sr/speech/inequality
p311
aVhttps://webgate.ec.europa.eu/sr/speech/cognitive-enhancers-cheating-or-not
p312
aVhttps://webgate.ec.europa.eu/sr/speech/christmas-truce-promoting-sales
p313
aVhttps://webgate.ec.europa.eu/sr/speech/nuclear-agreement-iran
p314
aVhttps://webgate.ec.europa.eu/sr/speech/changing-popularity-language-learning
p315
aVhttps://webgate.ec.europa.eu/sr/speech/tube-etiquette
p316
aVhttps://webgate.ec.europa.eu/sr/speech/populism-europe
p317
aVhttps://webgate.ec.europa.eu/sr/speech/berlin-wall-25-years-later
p318
aVhttps://webgate.ec.europa.eu/sr/speech/charlie-hebdo-massacre-events
p319
aVhttps://webgate.ec.europa.eu/sr/speech/charlie-hebdo-attack-and-freedom-speech
p320
aVhttps://webgate.ec.europa.eu/sr/speech/climate-change-and-strange-phenomena
p321
aVhttps://webgate.ec.europa.eu/sr/speech/all-about-diets
p322
aVhttps://webgate.ec.europa.eu/sr/speech/holiday-emails
p323
aVhttps://webgate.ec.europa.eu/sr/speech/tidiness-versus-messiness
p324
aVhttps://webgate.ec.europa.eu/sr/speech/eu-migrants-and-jobs
p325
aVhttps://webgate.ec.europa.eu/sr/speech/us-president-obama-speaks-american-veterans-disabled-life-memorial
p326
aVhttps://webgate.ec.europa.eu/sr/speech/female-aggressiveness-facebook
p327
aVhttps://webgate.ec.europa.eu/sr/speech/eu-energy-policy
p328
aVhttps://webgate.ec.europa.eu/sr/speech/china-and-global-economy
p329
aVhttps://webgate.ec.europa.eu/sr/speech/female-aggressiveness-facebook
p330
aVhttps://webgate.ec.europa.eu/sr/speech/greece-history-and-economy
p331
aVhttps://webgate.ec.europa.eu/sr/speech/sunspots-and-climate
p332
aVhttps://webgate.ec.europa.eu/sr/speech/robbery-sideline
p333
aVhttps://webgate.ec.europa.eu/sr/speech/predicting-future-sim
p334
aVhttps://webgate.ec.europa.eu/sr/speech/iceberg-water
p335
aVhttps://webgate.ec.europa.eu/sr/speech/relations-between-eu-and-switzerland
p336
aVhttps://webgate.ec.europa.eu/sr/speech/predicting-future
p337
aVhttps://webgate.ec.europa.eu/sr/speech/youth-unemployment-eu
p338
aVhttps://webgate.ec.europa.eu/sr/speech/china-and-wine
p339
aVhttps://webgate.ec.europa.eu/sr/speech/time-zones
p340
aVhttps://webgate.ec.europa.eu/sr/speech/express-kidnapping
p341
aVhttps://webgate.ec.europa.eu/sr/speech/three-referendums
p342
aVhttps://webgate.ec.europa.eu/sr/speech/brazil
p343
aVhttps://webgate.ec.europa.eu/sr/speech/fracking-solution-uk-energy-problems
p344
aVhttps://webgate.ec.europa.eu/sr/speech/app-healthier-lifestyle
p345
aVhttps://webgate.ec.europa.eu/sr/speech/psychology-food
p346
aVhttps://webgate.ec.europa.eu/sr/speech/turkey-and-eu
p347
aVhttps://webgate.ec.europa.eu/sr/speech/ladies-beware
p348
aVhttps://webgate.ec.europa.eu/sr/speech/app-healthier-lifestyle
p349
aVhttps://webgate.ec.europa.eu/sr/speech/psychology-food
p350
aVhttps://webgate.ec.europa.eu/sr/speech/uk-poland-relations-and-importance-eu-uk
p351
aVhttps://webgate.ec.europa.eu/sr/speech/british-membership-eu
p352
aVhttps://webgate.ec.europa.eu/sr/speech/gadgets-communication-purposes-and-our-attachment-them
p353
aVhttps://webgate.ec.europa.eu/sr/speech/media-multitasking-and-techno-overload
p354
aVhttps://webgate.ec.europa.eu/sr/speech/treatment-smokers-and-obese-people-uk
p355
aVhttps://webgate.ec.europa.eu/sr/speech/colour-blue
p356
aVhttps://webgate.ec.europa.eu/sr/speech/les-mis%C3%A9rables
p357
aVhttps://webgate.ec.europa.eu/sr/speech/demographic-shift-europe
p358
aVhttps://webgate.ec.europa.eu/sr/speech/social-enterprises
p359
aVhttps://webgate.ec.europa.eu/sr/speech/dog-good-you
p360
aVhttps://webgate.ec.europa.eu/sr/speech/art-giving-gifts
p361
aVhttps://webgate.ec.europa.eu/sr/speech/new-and-improved-products
p362
aVhttps://webgate.ec.europa.eu/sr/speech/greece-doldrums
p363
aVhttps://webgate.ec.europa.eu/sr/speech/non-justified-demonstration-against-gm-crops
p364
aVhttps://webgate.ec.europa.eu/sr/speech/rise-brics-development-aid-providers
p365
aVhttps://webgate.ec.europa.eu/sr/speech/brazil-and-india-different-type-development-aid
p366
aVhttps://webgate.ec.europa.eu/sr/speech/cultured-meat
p367
aVhttps://webgate.ec.europa.eu/sr/speech/istanbul
p368
aVhttps://webgate.ec.europa.eu/sr/speech/sunburn-and-skin-cancer
p369
aVhttps://webgate.ec.europa.eu/sr/speech/common-agricultural-policy-cap
p370
aVhttps://webgate.ec.europa.eu/sr/speech/bringing-children
p371
aVhttps://webgate.ec.europa.eu/sr/speech/concrete
p372
aVhttps://webgate.ec.europa.eu/sr/speech/beer
p373
aVhttps://webgate.ec.europa.eu/sr/speech/dangers-smoking
p374
aVhttps://webgate.ec.europa.eu/sr/speech/earthquakes-japan
p375
aVhttps://webgate.ec.europa.eu/sr/speech/sports-drinks
p376
aVhttps://webgate.ec.europa.eu/sr/speech/haiti-after-earthquake
p377
aVhttps://webgate.ec.europa.eu/sr/speech/festivities-2012
p378
aVhttps://webgate.ec.europa.eu/sr/speech/scientific-use-eggs
p379
aVhttps://webgate.ec.europa.eu/sr/speech/eggs
p380
aVhttps://webgate.ec.europa.eu/sr/speech/nuclear-energy-and-nuclear-waste
p381
aVhttps://webgate.ec.europa.eu/sr/speech/use-mobile-phones-board-aircraft
p382
aVhttps://webgate.ec.europa.eu/sr/speech/recruitment-south-african-nurses-work-british-national-health-service
p383
aVhttps://webgate.ec.europa.eu/sr/speech/may-2012-irish-referendum-new-fiscal-compact
p384
aVhttps://webgate.ec.europa.eu/sr/speech/introducing-ban-smoking-public-places-china
p385
aVhttps://webgate.ec.europa.eu/sr/speech/911-over-10-years-health-concerns-firefighters
p386
aVhttps://webgate.ec.europa.eu/sr/speech/increased-traffic-jams-and-traffic-congestion-uk
p387
aVhttps://webgate.ec.europa.eu/sr/speech/cap-reforms-over-years-moving-quantity-quality
p388
aVhttps://webgate.ec.europa.eu/sr/speech/shopping-our-way-out-global-warming-green-consumerism
p389
aVhttps://webgate.ec.europa.eu/sr/speech/divorce-vouchers
p390
aVhttps://webgate.ec.europa.eu/sr/speech/why-men-hate-shopping
p391
aVhttps://webgate.ec.europa.eu/sr/speech/father-christmas
p392
aVhttps://webgate.ec.europa.eu/sr/speech/languages-luxembourg
p393
aVhttps://webgate.ec.europa.eu/sr/speech/homecare-elderly-japan
p394
aVhttps://webgate.ec.europa.eu/sr/speech/nobel-peace-prize
p395
aVhttps://webgate.ec.europa.eu/sr/speech/fish-and-chips-twist
p396
aVhttps://webgate.ec.europa.eu/sr/speech/airline-industry-and-global-warming
p397
aVhttps://webgate.ec.europa.eu/sr/speech/euro-and-price-transparency
p398
aVhttps://webgate.ec.europa.eu/sr/speech/do-it-yourself-china
p399
aVhttps://webgate.ec.europa.eu/sr/speech/food-crisis
p400
aVhttps://webgate.ec.europa.eu/sr/speech/perception-risk-modern-world
p401
aVhttps://webgate.ec.europa.eu/sr/speech/reforming-energy-policy-eu
p402
aVhttps://webgate.ec.europa.eu/sr/speech/high-speed-rail-travel
p403
aVhttps://webgate.ec.europa.eu/sr/speech/immigration-and-refugees
p404
aVhttps://webgate.ec.europa.eu/sr/speech/fisheries-policy
p405
aVhttps://webgate.ec.europa.eu/sr/speech/national-health-service-nhs-uk
p406
aVhttps://webgate.ec.europa.eu/sr/speech/911-and-alternative-theories
p407
aVhttps://webgate.ec.europa.eu/sr/speech/april-fools-day
p408
aVhttps://webgate.ec.europa.eu/sr/speech/using-genetically-modified-plant-clear-fields-landmines
p409
aVhttps://webgate.ec.europa.eu/sr/speech/ventilation-london-underground-system
p410
aVhttps://webgate.ec.europa.eu/sr/speech/road-casualties-india
p411
aVhttps://webgate.ec.europa.eu/sr/speech/bagpipes-musical-instrument-and-weapon
p412
aVhttps://webgate.ec.europa.eu/sr/speech/food-aid-ethiopia
p413
aVhttps://webgate.ec.europa.eu/sr/speech/demography
p414
aVhttps://webgate.ec.europa.eu/sr/speech/dietary-advice-football-fans
p415
aVhttps://webgate.ec.europa.eu/sr/speech/facebook-1
p416
aVhttps://webgate.ec.europa.eu/sr/speech/facebook-2
p417
aVhttps://webgate.ec.europa.eu/sr/speech/soap-operas-not-just-form-entertainment-1
p418
aVhttps://webgate.ec.europa.eu/sr/speech/soap-operas-not-just-form-entertainment-2
p419
aVhttps://webgate.ec.europa.eu/sr/speech/oil-spill-gulf-mexico-part-1-2
p420
aVhttps://webgate.ec.europa.eu/sr/speech/oil-spill-gulf-mexico-part-2-2
p421
aVhttps://webgate.ec.europa.eu/sr/speech/rise-civilisation
p422
aVhttps://webgate.ec.europa.eu/sr/speech/what-you-did-not-know-about-concrete
p423
aVhttps://webgate.ec.europa.eu/sr/speech/uk-fights-eu-budget
p424
aVhttps://webgate.ec.europa.eu/sr/speech/uk-government-move
p425
aVhttps://webgate.ec.europa.eu/sr/speech/working-mothers-germany-i
p426
aVhttps://webgate.ec.europa.eu/sr/speech/working-mothers-germany-ii
p427
aVhttps://webgate.ec.europa.eu/sr/speech/bicycles-urban-environments
p428
aVhttps://webgate.ec.europa.eu/sr/speech/cycling-cities
p429
aVhttps://webgate.ec.europa.eu/sr/speech/new-accident-reduction-scheme-dorset-i
p430
aVhttps://webgate.ec.europa.eu/sr/speech/new-accident-reduction-scheme-dorset-ii
p431
aVhttps://webgate.ec.europa.eu/sr/speech/beneficial-effects-drinking-champagne
p432
aVhttps://webgate.ec.europa.eu/sr/speech/transport-problems-caused-eruption-icelandic-volcano
p433
aVhttps://webgate.ec.europa.eu/sr/speech/icelands-crisis
p434
aVhttps://webgate.ec.europa.eu/sr/speech/speech-president-european-council-part-1-2
p435
aVhttps://webgate.ec.europa.eu/sr/speech/speech-president-european-council-part-2-2
p436
aVhttps://webgate.ec.europa.eu/sr/speech/press-conference-economic-governance
p437
aVhttps://webgate.ec.europa.eu/sr/speech/press-conference-european-summit-economic-governance
p438
aVhttps://webgate.ec.europa.eu/sr/speech/eu-navfor-atalanta-counter-piracy-operation
p439
aVhttps://webgate.ec.europa.eu/sr/speech/eu-navfor-atalanta-counter-piracy-operation-0
p440
aVhttps://webgate.ec.europa.eu/sr/speech/development-and-humanitarian-aid-dimension-eu-navfor-atalanta-operation
p441
aVhttps://webgate.ec.europa.eu/sr/speech/activities-directorate-general-european-union-military-staff
p442
aVhttps://webgate.ec.europa.eu/sr/speech/drinking-uk
p443
aVhttps://webgate.ec.europa.eu/sr/speech/new-slug-exterminating-machine
p444
aVhttps://webgate.ec.europa.eu/sr/speech/light-pollution
p445
aVhttps://webgate.ec.europa.eu/sr/speech/james-dysons-inventions
p446
aVhttps://webgate.ec.europa.eu/sr/speech/common-fisheries-policy-reform
p447
aVhttps://webgate.ec.europa.eu/sr/speech/shared-space-urban-traffic
p448
aVhttps://webgate.ec.europa.eu/sr/speech/plight-gaza
p449
aVhttps://webgate.ec.europa.eu/sr/speech/eu-canada-relations
p450
aVhttps://webgate.ec.europa.eu/sr/speech/eus-aid-haiti
p451
aVhttps://webgate.ec.europa.eu/sr/speech/great-trade-collapse-brussels-economic-forum-2010
p452
aVhttps://webgate.ec.europa.eu/sr/speech/lessons-future-financial-system-brussels-economic-forum-2010
p453
aVhttps://webgate.ec.europa.eu/sr/speech/brussels-economic-forum-2010
p454
aVhttps://webgate.ec.europa.eu/sr/speech/second-high-level-stakeholder-conference-future-transport-workshop-3
p455
aVhttps://webgate.ec.europa.eu/sr/speech/western-balkans-overcoming-economic-crisis-regional-cooperation-eu-membership
p456
aVhttps://webgate.ec.europa.eu/sr/speech/translation-european-commission-1958-2010
p457
aVhttps://webgate.ec.europa.eu/sr/speech/coping-crisis-how-has-world-changed
p458
aVhttps://webgate.ec.europa.eu/sr/speech/official-opening-covenant-mayors-ceremony
p459
aVhttps://webgate.ec.europa.eu/sr/speech/sustainable-glasgow-vision-better-city
p460
aVhttps://webgate.ec.europa.eu/sr/speech/sustainable-strategies-future
p461
aVhttps://webgate.ec.europa.eu/sr/speech/united-airlines-rewards-fittest-people
p462
aVhttps://webgate.ec.europa.eu/sr/speech/unemployment-age-mobility
p463
aVhttps://webgate.ec.europa.eu/sr/speech/disenchantment-work
p464
aVhttps://webgate.ec.europa.eu/sr/speech/multitasking
p465
aVhttps://webgate.ec.europa.eu/sr/speech/grisly-story-cat-and-python
p466
aVhttps://webgate.ec.europa.eu/sr/speech/beneficial-effects-exercising
p467
aVhttps://webgate.ec.europa.eu/sr/speech/celebration-day-remembrance
p468
aVhttps://webgate.ec.europa.eu/sr/speech/interpreters-versus-translators
p469
aVhttps://webgate.ec.europa.eu/sr/speech/restaurant-bill
p470
aVhttps://webgate.ec.europa.eu/sr/speech/economic-models-europe
p471
aVhttps://webgate.ec.europa.eu/sr/speech/plastic-packaging
p472
aVhttps://webgate.ec.europa.eu/sr/speech/fish-farming
p473
aVhttps://webgate.ec.europa.eu/sr/speech/eib-and-ebrd-annual-reports-2007
p474
aVhttps://webgate.ec.europa.eu/sr/speech/conclusions-european-council-19-20-march-2009
p475
aVhttps://webgate.ec.europa.eu/sr/speech/economic-partnership-agreement-pacific
p476
aVhttps://webgate.ec.europa.eu/sr/speech/czech-presidency-programme
p477
aVhttps://webgate.ec.europa.eu/sr/speech/promotion-measures-agricultural-products
p478
aVhttps://webgate.ec.europa.eu/sr/speech/epas-trade-or-development
p479
aVhttps://webgate.ec.europa.eu/sr/speech/public-access-european-parliament-council-and-commission-documents
p480
aVhttps://webgate.ec.europa.eu/sr/speech/type-approval-requirements-general-safety-motor-vehicles
p481
aVhttps://webgate.ec.europa.eu/sr/speech/common-agricultural-policy-milk-sector
p482
aVhttps://webgate.ec.europa.eu/sr/speech/preparation-european-council-11-12-december-2008-point-view-commission
p483
aVhttps://webgate.ec.europa.eu/sr/speech/protecting-children-using-internet-and-other-communication-technologies-part-1-2
p484
aVhttps://webgate.ec.europa.eu/sr/speech/protecting-children-using-internet-and-other-communication-technologies-part-2-2
p485
aVhttps://webgate.ec.europa.eu/sr/speech/preparation-european-council-15-16102008-including-situation-global-financial-system
p486
aVhttps://webgate.ec.europa.eu/sr/speech/what-next-csr-europe
p487
aVhttps://webgate.ec.europa.eu/sr/speech/review-progress-csr-business
p488
aVhttps://webgate.ec.europa.eu/sr/speech/csr-research-and-business-practice
p489
aVhttps://webgate.ec.europa.eu/sr/speech/european-commission-csr
p490
aVhttps://webgate.ec.europa.eu/sr/speech/csr-and-investors
p491
aVhttps://webgate.ec.europa.eu/sr/speech/technological-and-social-innovation
p492
aVhttps://webgate.ec.europa.eu/sr/speech/ten-t-days-2008-14-15-oct-2008-brussels
p493
aVhttps://webgate.ec.europa.eu/sr/speech/intelligent-transport-system
p494
aVhttps://webgate.ec.europa.eu/sr/speech/added-value-ten-t-policy
p495
aVhttps://webgate.ec.europa.eu/sr/speech/private-sector-delivery-ten-t-projects
p496
aVhttps://webgate.ec.europa.eu/sr/speech/ensuring-optimal-funding
p497
aVhttps://webgate.ec.europa.eu/sr/speech/present-and-future-trans-european-networks
p498
aVhttps://webgate.ec.europa.eu/sr/speech/ten-t-infrastructure
p499
aVhttps://webgate.ec.europa.eu/sr/speech/fresh-fruit-and-vegetable-snack-program-us-policy-best-practices-and-benefits-part-3-3
p500
aVhttps://webgate.ec.europa.eu/sr/speech/covenant-mayors-ceremony-0
p501
aVhttps://webgate.ec.europa.eu/sr/speech/knowledge-and-excellence-matter-role-technology-users-driving-innovation-part-1-2
p502
aVhttps://webgate.ec.europa.eu/sr/speech/knowledge-and-excellence-role-technology-users-driving-innovation-2-2
p503
aVhttps://webgate.ec.europa.eu/sr/speech/school-fruit-how-does-eu-school-fruit-scheme-fit-cap-future
p504
aVhttps://webgate.ec.europa.eu/sr/speech/school-fruit-fresh-fruit-and-vegetable-snack-program-us-policy-best-practices-and-benefits
p505
aVhttps://webgate.ec.europa.eu/sr/speech/school-fruit-fresh-fruit-and-vegetable-snack-program-us-policy-best-practices-and-benefits-0
p506
aVhttps://webgate.ec.europa.eu/sr/speech/mobile-phones
p507
aVhttps://webgate.ec.europa.eu/sr/speech/hangovers-and-cold-war
p508
aVhttps://webgate.ec.europa.eu/sr/speech/weapons-mass-destruction
p509
aVhttps://webgate.ec.europa.eu/sr/speech/president-bush-and-katrina
p510
aVhttps://webgate.ec.europa.eu/sr/speech/common-fisheries-policy
p511
aVhttps://webgate.ec.europa.eu/sr/speech/tony-blair
p512
aVhttps://webgate.ec.europa.eu/sr/speech/flowers-valentines-day
p513
aVhttps://webgate.ec.europa.eu/sr/speech/cap-and-biscuit-production-brittany
p514
aVhttps://webgate.ec.europa.eu/sr/speech/towns-and-cities
p515
aVhttps://webgate.ec.europa.eu/sr/speech/electronic-devices-and-electronic-waste
p516
aVhttps://webgate.ec.europa.eu/sr/speech/message-mayor-new-york
p517
aVhttps://webgate.ec.europa.eu/sr/speech/eu-africa-summit-1
p518
aVhttps://webgate.ec.europa.eu/sr/speech/results-european-council-meeting-19th-and-20th-june-2008-brussels-slovenian-presidencys-term
p519
aVhttps://webgate.ec.europa.eu/sr/speech/preparation-european-council-economic-perspectives
p520
aVhttps://webgate.ec.europa.eu/sr/speech/preparation-european-council-liberal-point-view
p521
aVhttps://webgate.ec.europa.eu/sr/speech/trade-and-economic-relations-countries-south-east-asia-asean
p522
aVhttps://webgate.ec.europa.eu/sr/speech/trade-and-economic-relations-countries-south-east-asia-asean-0
p523
aVhttps://webgate.ec.europa.eu/sr/speech/2008-european-year-intercultural-dialogue
p524
aVhttps://webgate.ec.europa.eu/sr/speech/trade-and-economic-relations-asean
p525
aVhttps://webgate.ec.europa.eu/sr/speech/interpreters-job
p526
aVhttps://webgate.ec.europa.eu/sr/speech/knowledge-interpreting
p527
aVhttps://webgate.ec.europa.eu/sr/speech/multilingualism-1
p528
aVhttps://webgate.ec.europa.eu/sr/speech/globalisation
p529
aVhttps://webgate.ec.europa.eu/sr/speech/multilingualism-2
p530
aVhttps://webgate.ec.europa.eu/sr/speech/sun-friend-or-foe
p531
aVhttps://webgate.ec.europa.eu/sr/speech/children-asset-or-liability
p532
aVhttps://webgate.ec.europa.eu/sr/speech/education
p533
aVhttps://webgate.ec.europa.eu/sr/speech/eu-africa-summit-0
p534
aVhttps://webgate.ec.europa.eu/sr/speech/eu-africa-summit
p535
aVhttps://webgate.ec.europa.eu/sr/speech/small-business-act-%E2%80%93-european-private-company-statute
p536
aVhttps://webgate.ec.europa.eu/sr/speech/social-europe
p537
aVhttps://webgate.ec.europa.eu/sr/speech/israeli-palestinian-relations
p538
aVhttps://webgate.ec.europa.eu/sr/speech/nerds-and-interpreters
p539
aVhttps://webgate.ec.europa.eu/sr/speech/speech-repository
p540
aVhttps://webgate.ec.europa.eu/sr/speech/environment-council-0
p541
aVhttps://webgate.ec.europa.eu/sr/speech/environment-council-1
p542
aVhttps://webgate.ec.europa.eu/sr/speech/conference-womens-day
p543
aVhttps://webgate.ec.europa.eu/sr/speech/conference-womens-day-0
p544
aVhttps://webgate.ec.europa.eu/sr/speech/environment-council
p545
aVhttps://webgate.ec.europa.eu/sr/speech/safe-food-healthy-diets-eu-risk-assessment-past-present-and-future
p546
aVhttps://webgate.ec.europa.eu/sr/speech/green-week-2007-past-lessons-and-future-challenges
p547
aVhttps://webgate.ec.europa.eu/sr/speech/green-week-2007-past-lessons-and-future-challenges-0
p548
aVhttps://webgate.ec.europa.eu/sr/speech/green-week-2007-past-lessons-and-future-challenges-1
p549
aVhttps://webgate.ec.europa.eu/sr/speech/6th-european-tourism-forum-8
p550
aVhttps://webgate.ec.europa.eu/sr/speech/european-young-farmers-day-plenary-session-1
p551
aVhttps://webgate.ec.europa.eu/sr/speech/european-young-farmers
p552
aVhttps://webgate.ec.europa.eu/sr/speech/european-young-farmers-0
p553
aVhttps://webgate.ec.europa.eu/sr/speech/ieea-european-info-day-2007
p554
aVhttps://webgate.ec.europa.eu/sr/speech/european-young-farmers-day-plenary-session
p555
aVhttps://webgate.ec.europa.eu/sr/speech/european-young-farmers-day-plenary-session-0
p556
aVhttps://webgate.ec.europa.eu/sr/speech/beyond-gdp
p557
aVhttps://webgate.ec.europa.eu/sr/speech/beyond-gdp-measuring-progress-true-wealth-and-well-being-nations
p558
aVhttps://webgate.ec.europa.eu/sr/speech/beyond-gdp-measuring-progress-true-wealth-and-well-being-nations-0
p559
aVhttps://webgate.ec.europa.eu/sr/speech/beyond-gdp-measuring-progress-true-wealth-and-well-being-nations-1
p560
aVhttps://webgate.ec.europa.eu/sr/speech/beyond-gdp-measuring-progress-true-wealth-and-well-being-nations-3
p561
aVhttps://webgate.ec.europa.eu/sr/speech/beyond-gdp-measuring-progress-true-wealth-and-well-being-nations-5
p562
aVhttps://webgate.ec.europa.eu/sr/speech/beyond-gdp-measuring-progress-true-wealth-and-well-being-nations-7
p563
aVhttps://webgate.ec.europa.eu/sr/speech/beyond-gdp-measuring-progress-true-wealth-and-well-being-nations-9
p564
aVhttps://webgate.ec.europa.eu/sr/speech/6th-european-tourism-forum-0
p565
aVhttps://webgate.ec.europa.eu/sr/speech/6th-european-tourism-forum-1
p566
aVhttps://webgate.ec.europa.eu/sr/speech/6th-european-tourism-forum-2
p567
aVhttps://webgate.ec.europa.eu/sr/speech/6th-european-tourism-forum-3
p568
aVhttps://webgate.ec.europa.eu/sr/speech/6th-european-tourism-forum-4
p569
aVhttps://webgate.ec.europa.eu/sr/speech/6th-european-tourism-forum-5
p570
aVhttps://webgate.ec.europa.eu/sr/speech/6th-european-tourism-forum-6
p571
aVhttps://webgate.ec.europa.eu/sr/speech/6th-european-tourism-forum-7
p572
aVhttps://webgate.ec.europa.eu/sr/speech/4th-european-cohesion-forum-1
p573
aVhttps://webgate.ec.europa.eu/sr/speech/4th-european-cohesion-forum-2
p574
aVhttps://webgate.ec.europa.eu/sr/speech/4th-european-cohesion-forum-3
p575
aVhttps://webgate.ec.europa.eu/sr/speech/4th-european-cohesion-forum-4
p576
aVhttps://webgate.ec.europa.eu/sr/speech/4th-european-cohesion-forum-part-1-2
p577
aVhttps://webgate.ec.europa.eu/sr/speech/4th-european-cohesion-forum-part-2-2
p578
aVhttps://webgate.ec.europa.eu/sr/speech/4th-european-cohesion-forum
p579
aVhttps://webgate.ec.europa.eu/sr/speech/4th-european-cohesion-forum-0
p580
aVhttps://webgate.ec.europa.eu/sr/speech/eu-us-relations
p581
aVhttps://webgate.ec.europa.eu/sr/speech/eu-us-relations-0
p582
aVhttps://webgate.ec.europa.eu/sr/speech/peace-agenda-middle-east
p583
aVhttps://webgate.ec.europa.eu/sr/speech/eu-us-policy-china-and-iran
p584
aVhttps://webgate.ec.europa.eu/sr/speech/international-conference-biofuels
p585
aVhttps://webgate.ec.europa.eu/sr/speech/international-conference-biofuels-0
p586
aVhttps://webgate.ec.europa.eu/sr/speech/international-conference-biofuels-1
p587
aVhttps://webgate.ec.europa.eu/sr/speech/eu-summit-berlin
p588
aVhttps://webgate.ec.europa.eu/sr/speech/presentation-package-justice-liberty-and-security-12
p589
aVhttps://webgate.ec.europa.eu/sr/speech/presentation-package-justice-liberty-and-security-22
p590
aVhttps://webgate.ec.europa.eu/sr/speech/presentation-package-justice-liberty-and-security-part-1-2
p591
aVhttps://webgate.ec.europa.eu/sr/speech/presentation-package-justice-liberty-and-security-part-2-2-0
p592
aVhttps://webgate.ec.europa.eu/sr/speech/computer-technology
p593
aVhttps://webgate.ec.europa.eu/sr/speech/legal-landmark
p594
aVhttps://webgate.ec.europa.eu/sr/speech/european-governance
p595
aVhttps://webgate.ec.europa.eu/sr/speech/statement-president-ten-section
p596
aVhttps://webgate.ec.europa.eu/sr/speech/postal-services
p597
aVhttps://webgate.ec.europa.eu/sr/speech/eu-sustainable-energy-week-3
p598
aVhttps://webgate.ec.europa.eu/sr/speech/benefits-euro-2
p599
aVhttps://webgate.ec.europa.eu/sr/speech/what-future-our-agriculture-day-dialogue
p600
aVhttps://webgate.ec.europa.eu/sr/speech/european-water-conference-2007-1
p601
aVhttps://webgate.ec.europa.eu/sr/speech/european-road-safety-day-2007-1
p602
aVhttps://webgate.ec.europa.eu/sr/speech/eu-radio-frequency-identification-conference-2006-0
p603
aVhttps://webgate.ec.europa.eu/sr/speech/european-road-safety-day-2007
p604
aVhttps://webgate.ec.europa.eu/sr/speech/eu-youth-summit-2
p605
aVhttps://webgate.ec.europa.eu/sr/speech/eu-youth-summit
p606
aVhttps://webgate.ec.europa.eu/sr/speech/european-renewable-energy-policy-1
p607
aVhttps://webgate.ec.europa.eu/sr/speech/european-road-safety-day-2007-0
p608
aVhttps://webgate.ec.europa.eu/sr/speech/eu-radio-frequency-identification-conference-2006-1
p609
aVhttps://webgate.ec.europa.eu/sr/speech/european-water-conference-2007-0
p610
aVhttps://webgate.ec.europa.eu/sr/speech/eu-youth-summit-0
p611
aVhttps://webgate.ec.europa.eu/sr/speech/eu-youth-summit-1
p612
aVhttps://webgate.ec.europa.eu/sr/speech/eu-radio-frequency-identification-conference-2006-part-1-2-0
p613
aVhttps://webgate.ec.europa.eu/sr/speech/european-water-conference-2007-part-1-2-1
p614
aVhttps://webgate.ec.europa.eu/sr/speech/european-water-conference-2007-part-2-2-1
p615
aVhttps://webgate.ec.europa.eu/sr/speech/eu-radio-frequency-identification-conference-2006-part-2-2-0
p616
aVhttps://webgate.ec.europa.eu/sr/speech/european-renewable-energy-policy-0
p617
aVhttps://webgate.ec.europa.eu/sr/speech/eu-radio-frequency-identification-conference-2006
p618
aVhttps://webgate.ec.europa.eu/sr/speech/european-renewable-energy-policy-conference-part-1-2
p619
aVhttps://webgate.ec.europa.eu/sr/speech/hippo-story
p620
aVhttps://webgate.ec.europa.eu/sr/speech/european-renewable-energy-policy-conference-part-2-2
p621
aVhttps://webgate.ec.europa.eu/sr/speech/communion-silver-poor
p622
aVhttps://webgate.ec.europa.eu/sr/speech/eu-sustainable-energy-week-2007
p623
aVhttps://webgate.ec.europa.eu/sr/speech/european-water-conference-2007-part-1-2
p624
aVhttps://webgate.ec.europa.eu/sr/speech/european-water-conference-2007-part-2-2
p625
aVhttps://webgate.ec.europa.eu/sr/speech/european-water-conference-2007
p626
aVhttps://webgate.ec.europa.eu/sr/speech/eu-sustainable-energy-week
p627
aVhttps://webgate.ec.europa.eu/sr/speech/eu-sustainable-energy-week-0
p628
aVhttps://webgate.ec.europa.eu/sr/speech/european-water-conference-2007-part-1-2-0
p629
aVhttps://webgate.ec.europa.eu/sr/speech/european-renewable-energy-policy-conference
p630
aVhttps://webgate.ec.europa.eu/sr/speech/european-renewable-energy-policy
p631
aVhttps://webgate.ec.europa.eu/sr/speech/european-water-conference-2007-part-2-2-0
p632
aVhttps://webgate.ec.europa.eu/sr/speech/eu-sustainable-energy-week-1
p633
aVhttps://webgate.ec.europa.eu/sr/speech/mercury-management
p634
aVhttps://webgate.ec.europa.eu/sr/speech/scic-away-day-2006
p635
aVhttps://webgate.ec.europa.eu/sr/speech/big-brother
p636
aVhttps://webgate.ec.europa.eu/sr/speech/juvenile-delinquency
p637
aVhttps://webgate.ec.europa.eu/sr/speech/communication
p638
aVhttps://webgate.ec.europa.eu/sr/speech/advertising
p639
aVhttps://webgate.ec.europa.eu/sr/speech/e-mail
p640
aVhttps://webgate.ec.europa.eu/sr/speech/fox-hunting
p641
aVhttps://webgate.ec.europa.eu/sr/speech/weights-and-measures
p642
aVhttps://webgate.ec.europa.eu/sr/speech/eu-youth-summit-part-3-6
p643
aVhttps://webgate.ec.europa.eu/sr/speech/eu-youth-summit-part-1-6
p644
aVhttps://webgate.ec.europa.eu/sr/speech/eu-youth-summit-part-2-6
p645
aVhttps://webgate.ec.europa.eu/sr/speech/eu-youth-summit-part-4-6
p646
aVhttps://webgate.ec.europa.eu/sr/speech/eu-youth-summit-part-5-6
p647
asS'french'
p648
(lp649
Vhttps://webgate.ec.europa.eu/sr/speech/leau-sur-notre-plan%C3%A8te
p650
aVhttps://webgate.ec.europa.eu/sr/speech/lobsolescence-programm%C3%A9e
p651
aVhttps://webgate.ec.europa.eu/sr/speech/la-publicit%C3%A9-et-la-manipulation
p652
aVhttps://webgate.ec.europa.eu/sr/speech/ddt
p653
aVhttps://webgate.ec.europa.eu/sr/speech/pr%C3%A9paration-du-conseil-europ%C3%A9en-19-et-20-mars-2015
p654
aVhttps://webgate.ec.europa.eu/sr/speech/d%C3%A9claration-du-candidat-%C3%A0-la-fonction-de-pr%C3%A9sident-de-la-commission-d%C3%A9bat
p655
aVhttps://webgate.ec.europa.eu/sr/speech/d%C3%A9claration-de-fran%C3%A7ois-hollande-pr%C3%A9sident-de-la-r%C3%A9publique-fran%C3%A7aise-d%C3%A9bat
p656
aVhttps://webgate.ec.europa.eu/sr/speech/cent-ans-apr%C3%A8s-la-premi%C3%A8re-guerre-mondiale-le%C3%A7ons-%C3%A0-tirer-et-avenir-de-leurope-d%C3%A9bat-i
p657
aVhttps://webgate.ec.europa.eu/sr/speech/cent-ans-apr%C3%A8s-la-premi%C3%A8re-guerre-mondiale-le%C3%A7ons-%C3%A0-tirer-et-avenir-de-leurope-d%C3%A9bat-ii
p658
aVhttps://webgate.ec.europa.eu/sr/speech/programme-dactivit%C3%A9s-de-la-pr%C3%A9sidence-grecque
p659
aVhttps://webgate.ec.europa.eu/sr/speech/r%C3%A9flexion-du-pr%C3%A9sident-hollande-sur-diff%C3%A9rents-sujets-d%E2%80%99actualit%C3%A9
p660
aVhttps://webgate.ec.europa.eu/sr/speech/la-loi-macron
p661
aVhttps://webgate.ec.europa.eu/sr/speech/la-libert%C3%A9-d%E2%80%99expression
p662
aVhttps://webgate.ec.europa.eu/sr/speech/chaussures-qui-sadaptent-%C3%A0-la-croissance-des-enfants
p663
aVhttps://webgate.ec.europa.eu/sr/speech/les-murs-m%C3%AAme-tomb%C3%A9s-d%C3%A9meurent-dans-nos-t%C3%AAtes
p664
aVhttps://webgate.ec.europa.eu/sr/speech/le-transport-en-autocar-en-france
p665
aVhttps://webgate.ec.europa.eu/sr/speech/le-droit-d%C2%B4asile-et-particuli%C3%A8rement-la-liste-des-pays-s%C3%BBrs
p666
aVhttps://webgate.ec.europa.eu/sr/speech/discours-sur-l%C3%A9tat-de-lunion
p667
aVhttps://webgate.ec.europa.eu/sr/speech/la-cosm%C3%A9tique-naturelle
p668
aVhttps://webgate.ec.europa.eu/sr/speech/vivre-sans-plastique
p669
aVhttps://webgate.ec.europa.eu/sr/speech/les-sans-abris-toxicomanes-de-vancouver
p670
aVhttps://webgate.ec.europa.eu/sr/speech/le-tourisme-spatial
p671
aVhttps://webgate.ec.europa.eu/sr/speech/lavenir-de-lindustrie-en-belgique
p672
aVhttps://webgate.ec.europa.eu/sr/speech/qu%C3%A9bec-solidaire
p673
aVhttps://webgate.ec.europa.eu/sr/speech/les-r%C3%AAves
p674
aVhttps://webgate.ec.europa.eu/sr/speech/la-course-%C3%A0-pied
p675
aVhttps://webgate.ec.europa.eu/sr/speech/%C3%A9conomie-d%C3%A9carbon%C3%A9e
p676
aVhttps://webgate.ec.europa.eu/sr/speech/hausse-des-tarifs-d%C3%A9lectricit%C3%A9-au-qu%C3%A9bec
p677
aVhttps://webgate.ec.europa.eu/sr/speech/bruxelles-et-ses-probl%C3%A8mes
p678
aVhttps://webgate.ec.europa.eu/sr/speech/la-lettonie-et-leuro
p679
aVhttps://webgate.ec.europa.eu/sr/speech/ok-okay
p680
aVhttps://webgate.ec.europa.eu/sr/speech/cest-la-faute-%C3%A0-leurope
p681
aVhttps://webgate.ec.europa.eu/sr/speech/le-slow-food-versus-la-malbouffe
p682
aVhttps://webgate.ec.europa.eu/sr/speech/dessalement-de-l%E2%80%99eau-de-mer
p683
aVhttps://webgate.ec.europa.eu/sr/speech/accord-de-libre-%C3%A9change-entre-l%E2%80%99ue-et-les-etats-unis
p684
aVhttps://webgate.ec.europa.eu/sr/speech/le-couple-franco-allemand
p685
aVhttps://webgate.ec.europa.eu/sr/speech/la-place-du-diab%C3%A8te-des-nos-jours
p686
aVhttps://webgate.ec.europa.eu/sr/speech/le-miracle-de-la-stevia
p687
aVhttps://webgate.ec.europa.eu/sr/speech/le-fl%C3%A9au-du-travail-forc%C3%A9
p688
aVhttps://webgate.ec.europa.eu/sr/speech/le-web-20
p689
aVhttps://webgate.ec.europa.eu/sr/speech/limmigration-en-france
p690
aVhttps://webgate.ec.europa.eu/sr/speech/embouteillages
p691
aVhttps://webgate.ec.europa.eu/sr/speech/agrocarburants
p692
aVhttps://webgate.ec.europa.eu/sr/speech/p%C3%AAche-et-politique
p693
aVhttps://webgate.ec.europa.eu/sr/speech/leau-potable
p694
aVhttps://webgate.ec.europa.eu/sr/speech/huile-dolive
p695
aVhttps://webgate.ec.europa.eu/sr/speech/la-s%C3%A9curit%C3%A9-routi%C3%A8re
p696
aVhttps://webgate.ec.europa.eu/sr/speech/natalit%C3%A9-et-vieillissement-de-la-population
p697
aVhttps://webgate.ec.europa.eu/sr/speech/innover-ou-imiter
p698
aVhttps://webgate.ec.europa.eu/sr/speech/les-in%C3%A9galit%C3%A9s-homme-femme-dans-le-monde-du-travail-et-dans-lenseignement
p699
aVhttps://webgate.ec.europa.eu/sr/speech/la-musique-est-bonne-pour-le-c%C5%93ur
p700
aVhttps://webgate.ec.europa.eu/sr/speech/le-football
p701
aVhttps://webgate.ec.europa.eu/sr/speech/la-suisse
p702
aVhttps://webgate.ec.europa.eu/sr/speech/laide-alimentaire-et-leurope
p703
aVhttps://webgate.ec.europa.eu/sr/speech/le-rituel-judiciaire
p704
aVhttps://webgate.ec.europa.eu/sr/speech/doublage-ou-vo-telle-est-la-question
p705
aVhttps://webgate.ec.europa.eu/sr/speech/facebook-0
p706
aVhttps://webgate.ec.europa.eu/sr/speech/i
p707
aVhttps://webgate.ec.europa.eu/sr/speech/les-dom-tom
p708
aVhttps://webgate.ec.europa.eu/sr/speech/trois-ou-quatre-choses-que-vous-ne-saviez-peut-%C3%AAtre-pas-sur-linterpr%C3%A9tation
p709
aVhttps://webgate.ec.europa.eu/sr/speech/les-animaux
p710
aVhttps://webgate.ec.europa.eu/sr/speech/les-noms-et-les-pr%C3%A9noms
p711
aVhttps://webgate.ec.europa.eu/sr/speech/les-produits-halals
p712
aVhttps://webgate.ec.europa.eu/sr/speech/une-semaine-en-birmanie
p713
aVhttps://webgate.ec.europa.eu/sr/speech/tout-pour-r%C3%A9ussir-la-cons%C3%A9cutive
p714
aVhttps://webgate.ec.europa.eu/sr/speech/mais-%E2%80%A6-est-ce-de-lart
p715
aVhttps://webgate.ec.europa.eu/sr/speech/les-petits-gestes-pour-lenvironnement
p716
aVhttps://webgate.ec.europa.eu/sr/speech/la-musique-et-les-drogues
p717
aVhttps://webgate.ec.europa.eu/sr/speech/leau
p718
aVhttps://webgate.ec.europa.eu/sr/speech/des-moustiques-de-plus-en-plus-aggresifs
p719
aVhttps://webgate.ec.europa.eu/sr/speech/coquille-saint-jacques-et-ses-ennemis
p720
aVhttps://webgate.ec.europa.eu/sr/speech/grenouilles-en-danger
p721
aVhttps://webgate.ec.europa.eu/sr/speech/les-tunnels-le-poumon-%C3%A9conomique-de-la-bande-de-gaza
p722
aVhttps://webgate.ec.europa.eu/sr/speech/huile-de-palme-et-huile-dalgue
p723
aVhttps://webgate.ec.europa.eu/sr/speech/le-d%C3%A9clin-de-la-photo-argentique
p724
aVhttps://webgate.ec.europa.eu/sr/speech/tout-augmente-sauf-les-salaires
p725
aVhttps://webgate.ec.europa.eu/sr/speech/diff%C3%A9rentes-perceptions-du-nucl%C3%A9aire-dans-llunion-europ%C3%A9enne
p726
aVhttps://webgate.ec.europa.eu/sr/speech/le-printemps-arabe
p727
aVhttps://webgate.ec.europa.eu/sr/speech/crayon-%C3%A0-papier
p728
aVhttps://webgate.ec.europa.eu/sr/speech/ecole-%C3%A0-la-maison
p729
aVhttps://webgate.ec.europa.eu/sr/speech/les-dangers-dun-r%C3%A9gime-amaigrissant
p730
aVhttps://webgate.ec.europa.eu/sr/speech/erreurs-m%C3%A9dicales
p731
aVhttps://webgate.ec.europa.eu/sr/speech/les-troubles-du-sommeil
p732
aVhttps://webgate.ec.europa.eu/sr/speech/la-migraine
p733
aVhttps://webgate.ec.europa.eu/sr/speech/conf%C3%A9rence-de-presse-apr%C3%A8s-le-conseil-europ%C3%A9en-partie-1-de-3
p734
aVhttps://webgate.ec.europa.eu/sr/speech/conf%C3%A9rence-de-presse-suite-au-conseil-europ%C3%A9en-partie-2-de-3
p735
aVhttps://webgate.ec.europa.eu/sr/speech/conf%C3%A9rence-de-presse-suite-au-conseil-europ%C3%A9en-partie-3-de-3
p736
aVhttps://webgate.ec.europa.eu/sr/speech/conf%C3%A9rence-de-presse-suite-%C3%A0-la-r%C3%A9union-de-leurogroupe
p737
aVhttps://webgate.ec.europa.eu/sr/speech/r%C3%A9sultats-de-la-r%C3%A9union-du-conseil-des-affaires-%C3%A9trang%C3%A8res
p738
aVhttps://webgate.ec.europa.eu/sr/speech/la-retraite
p739
aVhttps://webgate.ec.europa.eu/sr/speech/internet-et-la-politique
p740
aVhttps://webgate.ec.europa.eu/sr/speech/monsanto-en-ha%C3%AFti
p741
aVhttps://webgate.ec.europa.eu/sr/speech/les-caravanes-aux-pays-bas
p742
aVhttps://webgate.ec.europa.eu/sr/speech/lunion-europ%C3%A9enne-et-sa-perte-dinfluence-en-2010
p743
aVhttps://webgate.ec.europa.eu/sr/speech/les-canons-%C3%A0-neige
p744
aVhttps://webgate.ec.europa.eu/sr/speech/le-sommet-de-copenhague
p745
aVhttps://webgate.ec.europa.eu/sr/speech/pauvret%C3%A9-et-terrorisme
p746
aVhttps://webgate.ec.europa.eu/sr/speech/le-football-et-les-sans-abris
p747
aVhttps://webgate.ec.europa.eu/sr/speech/m%C3%A9canisme-de-d%C3%A9veloppement-propre-mdp
p748
aVhttps://webgate.ec.europa.eu/sr/speech/histoire-des-boutons
p749
aVhttps://webgate.ec.europa.eu/sr/speech/le-mur-de-berlin-et-autres-murs
p750
aVhttps://webgate.ec.europa.eu/sr/speech/les-risques-du-m%C3%A9tier-dinterpr%C3%A8te
p751
aVhttps://webgate.ec.europa.eu/sr/speech/les-technologies-de-linformation-et-de-la-communication-en-afrique
p752
aVhttps://webgate.ec.europa.eu/sr/speech/viticulture-en-europe
p753
aVhttps://webgate.ec.europa.eu/sr/speech/manipulation-m%C3%A9t%C3%A9orologique-en-chine
p754
aVhttps://webgate.ec.europa.eu/sr/speech/ladh%C3%A9sion-%C3%A9ventuelle-de-lislande-%C3%A0-lunion-europ%C3%A9enne
p755
aVhttps://webgate.ec.europa.eu/sr/speech/les-voitures-respectueuses-de-lenvironnement
p756
aVhttps://webgate.ec.europa.eu/sr/speech/le-biodiesel
p757
aVhttps://webgate.ec.europa.eu/sr/speech/la-coca%C3%AFnomanie
p758
aVhttps://webgate.ec.europa.eu/sr/speech/l%C3%A9galit%C3%A9-entre-les-hommes-et-les-femmes
p759
aVhttps://webgate.ec.europa.eu/sr/speech/oc%C3%A9ans-et-baleines
p760
aVhttps://webgate.ec.europa.eu/sr/speech/l%C3%A9quipe-nationale-de-france-et-la-coupe-du-monde-2010
p761
aVhttps://webgate.ec.europa.eu/sr/speech/la-p%C3%A9nurie-en-eau
p762
aVhttps://webgate.ec.europa.eu/sr/speech/robots-m%C3%A9nagers
p763
aVhttps://webgate.ec.europa.eu/sr/speech/conf%C3%A9rence-de-presse-de-s-laruelle-ministre-belge-de-lagriculture
p764
aVhttps://webgate.ec.europa.eu/sr/speech/sarkozy-justifie-le-d%C3%A9mant%C3%A8lement-des-camps-ill%C3%A9gaux-en-france-partie-1-de-2
p765
aVhttps://webgate.ec.europa.eu/sr/speech/sarkozy-justifie-le-d%C3%A9mant%C3%A8lement-des-camps-ill%C3%A9gaux-en-france-partie-2-de-2
p766
aVhttps://webgate.ec.europa.eu/sr/speech/conclusions-du-conseil-de-comp%C3%A9titivit%C3%A9
p767
aVhttps://webgate.ec.europa.eu/sr/speech/limportance-des-d%C3%A9odorants
p768
aVhttps://webgate.ec.europa.eu/sr/speech/modes-vestimentaires-islamiques
p769
aVhttps://webgate.ec.europa.eu/sr/speech/ernst-walter-stummer-le-roi-de-la-cambriole-en-autriche
p770
aVhttps://webgate.ec.europa.eu/sr/speech/conf%C3%A9rence-de-presse-au-sommet-europ%C3%A9en-sur-la-gouvernance-%C3%A9conomique
p771
aVhttps://webgate.ec.europa.eu/sr/speech/la-pac-post-2013-%E2%80%93-conf%C3%A9rence-sur-le-d%C3%A9bat-public-un-dialogue-avec-la-soci%C3%A9t%C3%A9-civile
p772
aVhttps://webgate.ec.europa.eu/sr/speech/conseil-dassociation-ue-alg%C3%A9rie-conf%C3%A9rence-de-presse-partie-2-de-3
p773
aVhttps://webgate.ec.europa.eu/sr/speech/conseil-dassociation-ue-alg%C3%A9rie-conf%C3%A9rence-de-presse-partie-3-de-3
p774
aVhttps://webgate.ec.europa.eu/sr/speech/conseil-de-lunion-europ%C3%A9enne-de-juin-2010
p775
aVhttps://webgate.ec.europa.eu/sr/speech/quand-le-gouvernement-%C3%A9conomique-dans-lunion-europ%C3%A9enne
p776
aVhttps://webgate.ec.europa.eu/sr/speech/conf%C3%A9rence-de-presse-ecofin-08062010-partie-3-de-3
p777
aVhttps://webgate.ec.europa.eu/sr/speech/conf%C3%A9rence-de-presse-du-conseil-jai-34-juin
p778
aVhttps://webgate.ec.europa.eu/sr/speech/nouvelle-r%C3%A9gulation-du-march%C3%A9-int%C3%A9rieur
p779
aVhttps://webgate.ec.europa.eu/sr/speech/d%C3%A9but-de-la-85-session-pl%C3%A9ni%C3%A8re-du-cdr
p780
aVhttps://webgate.ec.europa.eu/sr/speech/presentation-du-projet-davis-sur-le-futur-de-la-pac
p781
aVhttps://webgate.ec.europa.eu/sr/speech/pr%C3%A9sentation-du-paquet-de-printemps-par-le-rapporteur-c-rouillon-cdr
p782
aVhttps://webgate.ec.europa.eu/sr/speech/culture-infoday-2010-comment-pr%C3%A9parer-un-bon-projet-culturel
p783
aVhttps://webgate.ec.europa.eu/sr/speech/culture-infoday-2010-aspects-financiers-des-projets-de-culture
p784
aVhttps://webgate.ec.europa.eu/sr/speech/culture-infoday-2010-crit%C3%A8res-dattribution-de-subventions-programme-culture
p785
aVhttps://webgate.ec.europa.eu/sr/speech/ob%C3%A9sit%C3%A9-et-d%C3%A9mence
p786
aVhttps://webgate.ec.europa.eu/sr/speech/les-cigarettes-et-le-t%C3%A9l%C3%A9phone-portable
p787
aVhttps://webgate.ec.europa.eu/sr/speech/la-pollution-dans-nos-domiciles
p788
aVhttps://webgate.ec.europa.eu/sr/speech/covenant-des-maires-session-ii-les-choix-de-montreuil
p789
aVhttps://webgate.ec.europa.eu/sr/speech/convention-des-maires-session-iv
p790
aVhttps://webgate.ec.europa.eu/sr/speech/le-trait%C3%A9-de-lisbonne-et-le-syst%C3%A8me-d%C3%A9lections-au-parlement
p791
aVhttps://webgate.ec.europa.eu/sr/speech/la-taxe-tobin-pour-%C3%A9viter-la-sp%C3%A9culation-financi%C3%A8re
p792
aVhttps://webgate.ec.europa.eu/sr/speech/pr%C3%A9vention-de-la-fraude-sur-la-tva
p793
aVhttps://webgate.ec.europa.eu/sr/speech/initiation-aux-instruments-financiers
p794
aVhttps://webgate.ec.europa.eu/sr/speech/mines-terrestres-antipersonnel
p795
aVhttps://webgate.ec.europa.eu/sr/speech/la-pand%C3%A9mie-de-lob%C3%A9sit%C3%A9
p796
aVhttps://webgate.ec.europa.eu/sr/speech/la-piraterie-sur-les-ondes
p797
aVhttps://webgate.ec.europa.eu/sr/speech/films-en-version-originale-ou-sous-titr%C3%A9s
p798
aVhttps://webgate.ec.europa.eu/sr/speech/erasmus-mundus-et-erasmus
p799
aVhttps://webgate.ec.europa.eu/sr/speech/d%C3%A9bat-sur-le-dernier-sommet-europ%C3%A9en
p800
aVhttps://webgate.ec.europa.eu/sr/speech/pr%C3%A9sidence-tch%C3%A8que-le-programme
p801
aVhttps://webgate.ec.europa.eu/sr/speech/partenariat-ue-afrique-financement
p802
aVhttps://webgate.ec.europa.eu/sr/speech/la-pr%C3%A9sidence-fran%C3%A7aise-dans-un-monde-en-crise-partie-1-de-3
p803
aVhttps://webgate.ec.europa.eu/sr/speech/la-pr%C3%A9sidence-fran%C3%A7aise-dans-un-monde-en-crise-partie-2-de-3
p804
aVhttps://webgate.ec.europa.eu/sr/speech/la-pr%C3%A9sidence-fran%C3%A7aise-dans-un-monde-en-crise-partie-3-de-3
p805
aVhttps://webgate.ec.europa.eu/sr/speech/les-plus-grands-d%C3%A9fis-pour-le-conseil-europ%C3%A9en-de-d%C3%A9cembre-2008-point-de-vue-de-la-commission
p806
aVhttps://webgate.ec.europa.eu/sr/speech/pr%C3%A9paration-du-conseil-europ%C3%A9en-11-et-12-d%C3%A9cembre-2008-point-de-vue-du-conseil
p807
aVhttps://webgate.ec.europa.eu/sr/speech/architecture-mondiale-des-march%C3%A9s-financiers
p808
aVhttps://webgate.ec.europa.eu/sr/speech/crise-%C3%A9conomique-comment-r%C3%A9actionne-lunion-europ%C3%A9enne
p809
aVhttps://webgate.ec.europa.eu/sr/speech/participation-de-l%E2%80%99%C3%A9tat-d%E2%80%99isra%C3%ABl-aux-programmes-communautaires
p810
aVhttps://webgate.ec.europa.eu/sr/speech/situation-dans-l%E2%80%99est-de-la-r%C3%A9publique-d%C3%A9mocratique-du-congo
p811
aVhttps://webgate.ec.europa.eu/sr/speech/situation-dans-lest-de-la-r%C3%A9publique-d%C3%A9mocratique-du-congo-discours-par-benita-ferrero
p812
aVhttps://webgate.ec.europa.eu/sr/speech/ingrid-betancourt-au-parlement-europ%C3%A9en-partie-1-de-2
p813
aVhttps://webgate.ec.europa.eu/sr/speech/donn%C3%A9es-des-dossiers-passagers-pnr-passenger-name-record
p814
aVhttps://webgate.ec.europa.eu/sr/speech/ingrid-betancourt-au-parlement-europ%C3%A9en-partie-2-de-2
p815
aVhttps://webgate.ec.europa.eu/sr/speech/gouvernance-et-partenariat-aux-niveaux-national-et-r%C3%A9gional
p816
aVhttps://webgate.ec.europa.eu/sr/speech/pr%C3%A9paration-du-conseil-europ%C3%A9en-situation-du-syst%C3%A8me-financier-mondial
p817
aVhttps://webgate.ec.europa.eu/sr/speech/rapport-sur-la-r%C3%A9union-du-conseil-europ%C3%A9en-partie-1-de-2
p818
aVhttps://webgate.ec.europa.eu/sr/speech/rapport-sur-la-r%C3%A9union-du-conseil-europ%C3%A9en-15-16-octobre-2008-partie-2-de-2
p819
aVhttps://webgate.ec.europa.eu/sr/speech/r%C3%A9forme-de-la-pac
p820
aVhttps://webgate.ec.europa.eu/sr/speech/transport-urbain-partie-1-de-2
p821
aVhttps://webgate.ec.europa.eu/sr/speech/transport-urbain-partie-2-de-2
p822
aVhttps://webgate.ec.europa.eu/sr/speech/transport-des-passagers-partie-1-de-2
p823
aVhttps://webgate.ec.europa.eu/sr/speech/transport-des-passagers-partie-2-de-2
p824
aVhttps://webgate.ec.europa.eu/sr/speech/transparence-et-responsabilit%C3%A9-sociale-des-entreprises
p825
aVhttps://webgate.ec.europa.eu/sr/speech/les-auto-saboteurs
p826
aVhttps://webgate.ec.europa.eu/sr/speech/toi-moi-et-la-relation
p827
aVhttps://webgate.ec.europa.eu/sr/speech/ten-t-le-d%C3%A9fi-des-r%C3%A9seaux-de-transport-transeurop%C3%A9ens
p828
aVhttps://webgate.ec.europa.eu/sr/speech/ten-t-le-d%C3%A9fi-des-r%C3%A9seaux-de-transport-transeurop%C3%A9ens-0
p829
aVhttps://webgate.ec.europa.eu/sr/speech/school-fruit
p830
aVhttps://webgate.ec.europa.eu/sr/speech/conf%C3%A9rence-europe-innova
p831
aVhttps://webgate.ec.europa.eu/sr/speech/conf%C3%A9rence-europe-innova-0
p832
aVhttps://webgate.ec.europa.eu/sr/speech/conf%C3%A9rence-europe-innova-1
p833
aVhttps://webgate.ec.europa.eu/sr/speech/droits-des-travailleurs-le-cas-des-chantiers-navals-de-saint-nazaire
p834
aVhttps://webgate.ec.europa.eu/sr/speech/r%C3%A9gime-de-tva-applicable-aux-assurances-et-services-financiers
p835
aVhttps://webgate.ec.europa.eu/sr/speech/pr%C3%A9sentation-du-semestre-de-pr%C3%A9sidence-fran%C3%A7aise-du-conseil-de-lunion
p836
aVhttps://webgate.ec.europa.eu/sr/speech/les-brevets-europ%C3%A9ens-aussi-en-fran%C3%A7ais
p837
aVhttps://webgate.ec.europa.eu/sr/speech/m%C3%A8res-porteuses
p838
aVhttps://webgate.ec.europa.eu/sr/speech/la-yougoslavie
p839
aVhttps://webgate.ec.europa.eu/sr/speech/l%C3%A9gislation-linguistique-au-qu%C3%A9bec
p840
aVhttps://webgate.ec.europa.eu/sr/speech/jean-monnet
p841
aVhttps://webgate.ec.europa.eu/sr/speech/laffaire-dreyfus
p842
aVhttps://webgate.ec.europa.eu/sr/speech/alimentation-naturelle
p843
aVhttps://webgate.ec.europa.eu/sr/speech/comment-vendre-laquavit-aux-am%C3%A9ricains
p844
aVhttps://webgate.ec.europa.eu/sr/speech/le-quotient-intellectuel
p845
aVhttps://webgate.ec.europa.eu/sr/speech/rotterdam
p846
aVhttps://webgate.ec.europa.eu/sr/speech/mod%C3%A9lisme-ferroviaire
p847
aVhttps://webgate.ec.europa.eu/sr/speech/le-riz
p848
aVhttps://webgate.ec.europa.eu/sr/speech/les-plastiques
p849
aVhttps://webgate.ec.europa.eu/sr/speech/gestion-des-d%C3%A9chets-en-plastique
p850
aVhttps://webgate.ec.europa.eu/sr/speech/manuel-dhistoire-commun-franco-allemand
p851
aVhttps://webgate.ec.europa.eu/sr/speech/sommet-ue-afrique-2007
p852
aVhttps://webgate.ec.europa.eu/sr/speech/trait%C3%A9-de-lisbonne
p853
aVhttps://webgate.ec.europa.eu/sr/speech/small-business-act-%E2%80%93-statut-de-la-soci%C3%A9t%C3%A9-priv%C3%A9e-europ%C3%A9enne
p854
aVhttps://webgate.ec.europa.eu/sr/speech/s%C3%A9ance-pl%C3%A9ni%C3%A8re-6-mars-2008-1
p855
aVhttps://webgate.ec.europa.eu/sr/speech/s%C3%A9ance-pl%C3%A9ni%C3%A8re-6-mars-2008-2
p856
aVhttps://webgate.ec.europa.eu/sr/speech/s%C3%A9ance-pl%C3%A9ni%C3%A8re-6-mars-2008-3
p857
aVhttps://webgate.ec.europa.eu/sr/speech/s%C3%A9ance-pl%C3%A9ni%C3%A8re-6-mars-2008-4
p858
aVhttps://webgate.ec.europa.eu/sr/speech/s%C3%A9ance-pl%C3%A9ni%C3%A8re-6-mars-2008
p859
aVhttps://webgate.ec.europa.eu/sr/speech/s%C3%A9nat-de-belgique-s%C3%A9ance-pl%C3%A9ni%C3%A8re-6-mars-2008
p860
aVhttps://webgate.ec.europa.eu/sr/speech/r%C3%A9union-du-bureau-du-groupe-du-ppe-de-en-slov%C3%A9nie
p861
aVhttps://webgate.ec.europa.eu/sr/speech/r%C3%A9union-du-bureau-du-groupe-du-ppe-de-en-slov%C3%A9nie-0
p862
aVhttps://webgate.ec.europa.eu/sr/speech/evolution-de-l%E2%80%99incidence-et-de-la-mortalit%C3%A9-par-cancer-en-france
p863
aVhttps://webgate.ec.europa.eu/sr/speech/laffaire-adidas
p864
aVhttps://webgate.ec.europa.eu/sr/speech/situation-au-tibet
p865
aVhttps://webgate.ec.europa.eu/sr/speech/modification-du-titre-xv-de-la-constitution
p866
aVhttps://webgate.ec.europa.eu/sr/speech/modification-du-titre-xv-de-la-constitution-0
p867
aVhttps://webgate.ec.europa.eu/sr/speech/travail-emploi-et-pouvoir-dachat-i-partie-2-de-3
p868
aVhttps://webgate.ec.europa.eu/sr/speech/travail-emploi-et-pouvoir-d-achat-partie-3-de-3
p869
aVhttps://webgate.ec.europa.eu/sr/speech/travail-emploi-et-pouvoir-dachat-i-partie-1-de-3
p870
aVhttps://webgate.ec.europa.eu/sr/speech/travail-emploi-et-pouvoir-dachat-ii
p871
aVhttps://webgate.ec.europa.eu/sr/speech/pouvoir-d-achat-iii
p872
aVhttps://webgate.ec.europa.eu/sr/speech/travail-emploi-et-pouvoir-dachat-iv
p873
aVhttps://webgate.ec.europa.eu/sr/speech/travail-emploi-et-pouvoir-d-achat-v
p874
aVhttps://webgate.ec.europa.eu/sr/speech/gr%C3%A8ves-dans-le-transport-des-voyageurs-dialogue-social
p875
aVhttps://webgate.ec.europa.eu/sr/speech/gr%C3%A8ves-dans-le-transport-des-voyageurs-services-minimum
p876
aVhttps://webgate.ec.europa.eu/sr/speech/gr%C3%A8ves-dans-le-transport-des-voyageurs-droit-%C3%A0-linformation
p877
aVhttps://webgate.ec.europa.eu/sr/speech/gr%C3%A8ves-dans-le-transport-des-voyageurs-une-loi-n%C3%A9cessaire
p878
aVhttps://webgate.ec.europa.eu/sr/speech/gr%C3%A8ves-dans-le-transport-des-voyageurs-une-loi-inn%C3%A9cessaire
p879
aVhttps://webgate.ec.europa.eu/sr/speech/bilan-des-dix-premi%C3%A8res-ann%C3%A9es-de-l%E2%80%99union-%C3%A9conomique-et-mon%C3%A9taire
p880
aVhttps://webgate.ec.europa.eu/sr/speech/rapport-annuel-de-la-banque-centrale-europ%C3%A9enne-pour-2007
p881
aVhttps://webgate.ec.europa.eu/sr/speech/pr%C3%A9sentation-du-programme-de-la-pr%C3%A9sidence-fran%C3%A7aise-partie-1-de-2
p882
aVhttps://webgate.ec.europa.eu/sr/speech/pr%C3%A9sentation-du-programme-de-la-pr%C3%A9sidence-fran%C3%A7aise-partie-2-de-2
p883
aVhttps://webgate.ec.europa.eu/sr/speech/covenant-mayors-ceremony
p884
aVhttps://webgate.ec.europa.eu/sr/speech/conf%C3%A9rence-sur-la-journ%C3%A9e-de-la-femme-partie-1-de-2
p885
aVhttps://webgate.ec.europa.eu/sr/speech/conf%C3%A9rence-sur-la-journ%C3%A9e-de-la-femme-partie-2-de-2
p886
aVhttps://webgate.ec.europa.eu/sr/speech/conseil-de-lenvironnement
p887
aVhttps://webgate.ec.europa.eu/sr/speech/immigration-int%C3%A9gration-et-asile-0
p888
aVhttps://webgate.ec.europa.eu/sr/speech/grenelle-de-lenvironnement-23
p889
aVhttps://webgate.ec.europa.eu/sr/speech/grenelle-de-lenvironnement-33
p890
aVhttps://webgate.ec.europa.eu/sr/speech/grenelle-de-lenvironnement-13
p891
aVhttps://webgate.ec.europa.eu/sr/speech/plus-dargent-ou-plus-de-temps-libre-le-choix-pour-les-salari%C3%A9s
p892
aVhttps://webgate.ec.europa.eu/sr/speech/projet-de-loi-sur-le-pouvoir-dachat-des-salari%C3%A9s
p893
aVhttps://webgate.ec.europa.eu/sr/speech/la-politique-europ%C3%A9enne-du-transport-durable
p894
aVhttps://webgate.ec.europa.eu/sr/speech/la-politique-chinoise-et-ses-effets-sur-lafrique
p895
aVhttps://webgate.ec.europa.eu/sr/speech/p%C3%A9nurie-alimentaire-le-tsunami-humanitaire
p896
aVhttps://webgate.ec.europa.eu/sr/speech/comment-mesurer-lefficacit%C3%A9-dune-entreprise
p897
aVhttps://webgate.ec.europa.eu/sr/speech/au-del%C3%A0-du-pib-mesurer-le-progr%C3%A8s-la-richesse-et-le-bien-%C3%AAtre-des-nations
p898
aVhttps://webgate.ec.europa.eu/sr/speech/p%C3%A9nurie-alimentaire
p899
aVhttps://webgate.ec.europa.eu/sr/speech/sixi%C3%A8me-forum-du-tourisme-europ%C3%A9en
p900
aVhttps://webgate.ec.europa.eu/sr/speech/pr%C3%A9paration-du-conseil-europ%C3%A9en
p901
aVhttps://webgate.ec.europa.eu/sr/speech/sixi%C3%A8me-forum-du-tourisme-europ%C3%A9en-0
p902
aVhttps://webgate.ec.europa.eu/sr/speech/pr%C3%A9paration-au-conseil-europ%C3%A9en
p903
aVhttps://webgate.ec.europa.eu/sr/speech/c%C3%A9l%C3%A9bration-du-premier-demi-si%C3%A8cle-du-parlement-europ%C3%A9en
p904
aVhttps://webgate.ec.europa.eu/sr/speech/quatri%C3%A8me-forum-europ%C3%A9en-sur-la-coh%C3%A9sion
p905
aVhttps://webgate.ec.europa.eu/sr/speech/quatri%C3%A8me-forum-sur-la-coh%C3%A9sion-europ%C3%A9enne
p906
aVhttps://webgate.ec.europa.eu/sr/speech/pr%C3%A9vention-de-la-d%C3%A9linquance
p907
aVhttps://webgate.ec.europa.eu/sr/speech/modernisation-du-dialogue-social
p908
aVhttps://webgate.ec.europa.eu/sr/speech/interdiction-de-la-peine-de-mort
p909
aVhttps://webgate.ec.europa.eu/sr/speech/protection-de-lenfance
p910
aVhttps://webgate.ec.europa.eu/sr/speech/d%C3%A9claration-de-politique-g%C3%A9n%C3%A9rale-partie-1-de-4
p911
aVhttps://webgate.ec.europa.eu/sr/speech/d%C3%A9claration-de-politique-g%C3%A9n%C3%A9rale-partie-2-de-4
p912
aVhttps://webgate.ec.europa.eu/sr/speech/d%C3%A9claration-de-politique-g%C3%A9n%C3%A9rale-partie-3-de-4
p913
aVhttps://webgate.ec.europa.eu/sr/speech/d%C3%A9claration-de-politique-g%C3%A9n%C3%A9rale-partie-4-de-4
p914
aVhttps://webgate.ec.europa.eu/sr/speech/lutte-contre-le-terrorisme-partie-1-de-2
p915
aVhttps://webgate.ec.europa.eu/sr/speech/lutte-contre-le-terrorisme-partie-2-de-2
p916
aVhttps://webgate.ec.europa.eu/sr/speech/kyoto
p917
aVhttps://webgate.ec.europa.eu/sr/speech/premier-discours-du-pr%C3%A9sident-de-la-r%C3%A9publique-fran%C3%A7aise-avec-le-pr%C3%A9sident-barroso-0
p918
aVhttps://webgate.ec.europa.eu/sr/speech/premier-discours-du-pr%C3%A9sident-de-la-r%C3%A9publique-fran%C3%A7aise-avec-le-pr%C3%A9sident-barroso-1
p919
aVhttps://webgate.ec.europa.eu/sr/speech/premier-discours-pr%C3%A9sident-de-la-r%C3%A9publique-fran%C3%A7aise-avec-le-pr%C3%A9sident-barroso-0
p920
aVhttps://webgate.ec.europa.eu/sr/speech/premier-discours-du-pr%C3%A9sident-de-la-r%C3%A9publique-fran%C3%A7aise-avec-le-pr%C3%A9sident-barroso
p921
aVhttps://webgate.ec.europa.eu/sr/speech/loi-programme
p922
aVhttps://webgate.ec.europa.eu/sr/speech/services-postaux
p923
aVhttps://webgate.ec.europa.eu/sr/speech/greffes-et-ethiques
p924
aVhttps://webgate.ec.europa.eu/sr/speech/le-fret-et-la-sncf
p925
aVhttps://webgate.ec.europa.eu/sr/speech/coh%C3%A9sion-territoriale
p926
aVhttps://webgate.ec.europa.eu/sr/speech/les-enfants-et-le-langage
p927
aVhttps://webgate.ec.europa.eu/sr/speech/conf%C3%A9rence-sur-les-rfid-2006
p928
aVhttps://webgate.ec.europa.eu/sr/speech/journ%C3%A9e-europ%C3%A9enne-de-la-s%C3%A9curit%C3%A9-routi%C3%A8re-2007
p929
aVhttps://webgate.ec.europa.eu/sr/speech/journ%C3%A9e-europ%C3%A9enne-de-la-s%C3%A9curit%C3%A9-routi%C3%A8re-2007-1
p930
aVhttps://webgate.ec.europa.eu/sr/speech/la-journ%C3%A9e-europ%C3%A9enne-des-jeunes-agriculteurs
p931
aVhttps://webgate.ec.europa.eu/sr/speech/la-semaine-des-%C3%A9nergies-renouvelables-dans-lue
p932
aVhttps://webgate.ec.europa.eu/sr/speech/la-journ%C3%A9e-mondiale-de-leau-en-2007
p933
aVhttps://webgate.ec.europa.eu/sr/speech/inondations-et-s%C3%A9cheresses-gestion-de-leau
p934
aVhttps://webgate.ec.europa.eu/sr/speech/commerce-de-fourrures
p935
aVhttps://webgate.ec.europa.eu/sr/speech/benefits-euro
p936
aVhttps://webgate.ec.europa.eu/sr/speech/premier-discours-pr%C3%A9sident-de-la-r%C3%A9publique-fran%C3%A7aise-avec-le-pr%C3%A9sident-barroso
p937
aVhttps://webgate.ec.europa.eu/sr/speech/les-pigeons
p938
aVhttps://webgate.ec.europa.eu/sr/speech/le-chou-fleur
p939
aVhttps://webgate.ec.europa.eu/sr/speech/politique-%C3%A9nerg%C3%A9tique-1
p940
aVhttps://webgate.ec.europa.eu/sr/speech/la-validit%C3%A9-des-mariages
p941
aVhttps://webgate.ec.europa.eu/sr/speech/politique-%C3%A9nerg%C3%A9tique-2
p942
aVhttps://webgate.ec.europa.eu/sr/speech/politique-%C3%A9nerg%C3%A9tique-3
p943
aVhttps://webgate.ec.europa.eu/sr/speech/politique-%C3%A9nerg%C3%A9tique-4
p944
aVhttps://webgate.ec.europa.eu/sr/speech/politique-%C3%A9nerg%C3%A9tique-5
p945
aVhttps://webgate.ec.europa.eu/sr/speech/politique-%C3%A9nerg%C3%A9tique-6
p946
aVhttps://webgate.ec.europa.eu/sr/speech/mariages-mixtes
p947
aVhttps://webgate.ec.europa.eu/sr/speech/mariages-mixtes-13
p948
aVhttps://webgate.ec.europa.eu/sr/speech/mariages-mixtes-23
p949
asS'spanish'
p950
(lp951
Vhttps://webgate.ec.europa.eu/sr/speech/el-hierro-una-isla-sostenible
p952
aVhttps://webgate.ec.europa.eu/sr/speech/la-agricultura-ecol%C3%B3gica-%C2%BFuna-soluci%C3%B3n-al-hambre-en-el-mundo
p953
aVhttps://webgate.ec.europa.eu/sr/speech/la-nomofobia-una-dolencia-de-nuestro-tiempo
p954
aVhttps://webgate.ec.europa.eu/sr/speech/los-horrores-ortogr%C3%A1ficos-de-los-mensajes-m%C3%B3viles
p955
aVhttps://webgate.ec.europa.eu/sr/speech/los-juguetes-sexistas
p956
aVhttps://webgate.ec.europa.eu/sr/speech/la-generaci%C3%B3n-de-las-no-madres
p957
aVhttps://webgate.ec.europa.eu/sr/speech/la-moda-de-la-vida-sana
p958
aVhttps://webgate.ec.europa.eu/sr/speech/consejos-para-hablar-en-p%C3%BAblico
p959
aVhttps://webgate.ec.europa.eu/sr/speech/hacer-de-necesidad-virtud
p960
aVhttps://webgate.ec.europa.eu/sr/speech/c%C3%B3mo-elaborar-un-plan-de-acci%C3%B3n-para-los-pr%C3%B3ximos-12-meses
p961
aVhttps://webgate.ec.europa.eu/sr/speech/el-caf%C3%A9-descafeinado
p962
aVhttps://webgate.ec.europa.eu/sr/speech/descubre-tus-fortalezas
p963
aVhttps://webgate.ec.europa.eu/sr/speech/los-robots
p964
aVhttps://webgate.ec.europa.eu/sr/speech/las-estrellas-michelin
p965
aVhttps://webgate.ec.europa.eu/sr/speech/el-guano
p966
aVhttps://webgate.ec.europa.eu/sr/speech/inactividad-f%C3%ADsica-el-mal-de-nuestro-tiempo
p967
aVhttps://webgate.ec.europa.eu/sr/speech/el-autom%C3%B3vil-del-futuro
p968
aVhttps://webgate.ec.europa.eu/sr/speech/el-sue%C3%B1o
p969
aVhttps://webgate.ec.europa.eu/sr/speech/h%C3%A1bitos-de-crisis
p970
aVhttps://webgate.ec.europa.eu/sr/speech/el-desperdicio-de-alimentos
p971
aVhttps://webgate.ec.europa.eu/sr/speech/groenlandia-y-el-%C3%A1rtico
p972
aVhttps://webgate.ec.europa.eu/sr/speech/medicinas-alternativas
p973
aVhttps://webgate.ec.europa.eu/sr/speech/elogio-al-caminar
p974
aVhttps://webgate.ec.europa.eu/sr/speech/estrategia-de-lisboa
p975
aVhttps://webgate.ec.europa.eu/sr/speech/mercado-de-la-electricidad
p976
aVhttps://webgate.ec.europa.eu/sr/speech/una-peque%C3%B1a-gu%C3%ADa-financiera
p977
aVhttps://webgate.ec.europa.eu/sr/speech/geopol%C3%ADtica-del-agua-potable
p978
aVhttps://webgate.ec.europa.eu/sr/speech/las-cosas-favoritas-de-kim-jong-il
p979
aVhttps://webgate.ec.europa.eu/sr/speech/horror-en-el-comedor-de-la-escuela
p980
aVhttps://webgate.ec.europa.eu/sr/speech/el-mercado-de-arte
p981
aVhttps://webgate.ec.europa.eu/sr/speech/la-par%C3%A1lisis-cerebral
p982
aVhttps://webgate.ec.europa.eu/sr/speech/footing
p983
aVhttps://webgate.ec.europa.eu/sr/speech/consejos-para-hacer-footing
p984
aVhttps://webgate.ec.europa.eu/sr/speech/comida-en-el-aire
p985
aVhttps://webgate.ec.europa.eu/sr/speech/el-acoso-escolar-y-la-demograf%C3%ADa
p986
aVhttps://webgate.ec.europa.eu/sr/speech/la-vida-low-cost
p987
aVhttps://webgate.ec.europa.eu/sr/speech/las-grasas-trans
p988
aVhttps://webgate.ec.europa.eu/sr/speech/el-comercio-justo
p989
aVhttps://webgate.ec.europa.eu/sr/speech/interpretar-en-el-consejo-o-la-comisi%C3%B3n-y-en-el-parlamento-europeo
p990
aVhttps://webgate.ec.europa.eu/sr/speech/las-elecciones-municipales-en-b%C3%A9lgica-en-octubre-2012
p991
aVhttps://webgate.ec.europa.eu/sr/speech/uso-de-la-bicicleta-en-bruselas
p992
aVhttps://webgate.ec.europa.eu/sr/speech/la-energ%C3%ADa-nuclear-despu%C3%A9s-de-fukushima
p993
aVhttps://webgate.ec.europa.eu/sr/speech/el-calentamiento-global-y-el-pasaje-del-noroeste
p994
aVhttps://webgate.ec.europa.eu/sr/speech/la-crisis-econ%C3%B3mica-y-la-desaparici%C3%B3n-del-peque%C3%B1o-comercio-en-espa%C3%B1a
p995
aVhttps://webgate.ec.europa.eu/sr/speech/incendios-forestales-en-espa%C3%B1a
p996
aVhttps://webgate.ec.europa.eu/sr/speech/ski-para-principiantes
p997
aVhttps://webgate.ec.europa.eu/sr/speech/el-camino-de-santiago
p998
aVhttps://webgate.ec.europa.eu/sr/speech/san-nicol%C3%A1s
p999
aVhttps://webgate.ec.europa.eu/sr/speech/calidad-de-la-ense%C3%B1anza
p1000
aVhttps://webgate.ec.europa.eu/sr/speech/terremotos
p1001
aVhttps://webgate.ec.europa.eu/sr/speech/impuestos-verdes
p1002
aVhttps://webgate.ec.europa.eu/sr/speech/inmigraci%C3%B3n-selectiva
p1003
aVhttps://webgate.ec.europa.eu/sr/speech/los-libros-de-texto-ya-no-son-lo-que-eran
p1004
aVhttps://webgate.ec.europa.eu/sr/speech/el-billete-de-500-%E2%82%AC
p1005
aVhttps://webgate.ec.europa.eu/sr/speech/residuos-peligrosos
p1006
aVhttps://webgate.ec.europa.eu/sr/speech/las-buenas-intenciones-del-consumidor-responsable
p1007
aVhttps://webgate.ec.europa.eu/sr/speech/la-energ%C3%ADa-en-las-islas-canarias
p1008
aVhttps://webgate.ec.europa.eu/sr/speech/modelos-de-f%C3%BAtbol
p1009
aVhttps://webgate.ec.europa.eu/sr/speech/pol%C3%ADtica-de-austeridad
p1010
aVhttps://webgate.ec.europa.eu/sr/speech/nueva-fuente-de-energ%C3%ADa-las-algas
p1011
aVhttps://webgate.ec.europa.eu/sr/speech/el-real-madrid-y-el-barcelona
p1012
aVhttps://webgate.ec.europa.eu/sr/speech/los-problemas-del-primer-ministro-berlusconi
p1013
aVhttps://webgate.ec.europa.eu/sr/speech/narcolepsia
p1014
aVhttps://webgate.ec.europa.eu/sr/speech/huracanes
p1015
aVhttps://webgate.ec.europa.eu/sr/speech/tren-de-alta-velocidad-espa%C3%B1ola-ave
p1016
aVhttps://webgate.ec.europa.eu/sr/speech/competitividad-y-conciliaci%C3%B3n-de-la-vida-privada-y-profesional-en-espa%C3%B1a
p1017
aVhttps://webgate.ec.europa.eu/sr/speech/presencia-hispana-en-estados-unidos
p1018
aVhttps://webgate.ec.europa.eu/sr/speech/naciones-unidas
p1019
aVhttps://webgate.ec.europa.eu/sr/speech/emigraci%C3%B3n-y-ayuda-al-desarrollo
p1020
aVhttps://webgate.ec.europa.eu/sr/speech/carrefour-en-b%C3%A9lgica-y-los-hipermercados
p1021
aVhttps://webgate.ec.europa.eu/sr/speech/la-mujer-en-la-familia-musulmana
p1022
aVhttps://webgate.ec.europa.eu/sr/speech/m%C3%A9todos-de-investigar-delitos
p1023
aVhttps://webgate.ec.europa.eu/sr/speech/trastornos-mentales
p1024
aVhttps://webgate.ec.europa.eu/sr/speech/dislexia
p1025
aVhttps://webgate.ec.europa.eu/sr/speech/distracci%C3%B3n-en-el-trabajo
p1026
aVhttps://webgate.ec.europa.eu/sr/speech/el-espa%C3%B1ol-y-las-lenguas-de-espa%C3%B1a
p1027
aVhttps://webgate.ec.europa.eu/sr/speech/razas-de-ganado-en-peligro-de-extinci%C3%B3n
p1028
aVhttps://webgate.ec.europa.eu/sr/speech/la-monarqu%C3%ADa-en-espa%C3%B1a
p1029
aVhttps://webgate.ec.europa.eu/sr/speech/islandia-se-queda-sin-alegr%C3%ADa
p1030
aVhttps://webgate.ec.europa.eu/sr/speech/9111989-la-noche-m%C3%A1s-larga-en-berl%C3%ADn
p1031
aVhttps://webgate.ec.europa.eu/sr/speech/el-coche-el%C3%A9ctrico
p1032
aVhttps://webgate.ec.europa.eu/sr/speech/el-espa%C3%B1ol-y-las-lenguas-de-espa%C3%B1a
p1033
aVhttps://webgate.ec.europa.eu/sr/speech/razas-de-ganado-en-peligro-de-extinci%C3%B3n
p1034
aVhttps://webgate.ec.europa.eu/sr/speech/la-monarqu%C3%ADa-en-espa%C3%B1a
p1035
aVhttps://webgate.ec.europa.eu/sr/speech/islandia-se-queda-sin-alegr%C3%ADa
p1036
aVhttps://webgate.ec.europa.eu/sr/speech/9111989-la-noche-m%C3%A1s-larga-en-berl%C3%ADn
p1037
aVhttps://webgate.ec.europa.eu/sr/speech/alejandro-finisterre-una-biograf%C3%ADa-ins%C3%B3lita
p1038
aVhttps://webgate.ec.europa.eu/sr/speech/pers%C3%A9polis
p1039
aVhttps://webgate.ec.europa.eu/sr/speech/sistema-de-pensiones-en-espa%C3%B1a-parte-1-de-4
p1040
aVhttps://webgate.ec.europa.eu/sr/speech/sistema-de-pensiones-en-espa%C3%B1a-parte-2-de-4
p1041
aVhttps://webgate.ec.europa.eu/sr/speech/plan-estrat%C3%A9gico-de-la-agencia-espa%C3%B1ola-de-medicamentos-y-productos-sanitarios-parte-1-de-4
p1042
aVhttps://webgate.ec.europa.eu/sr/speech/plan-estrat%C3%A9gico-de-la-agencia-espa%C3%B1ola-de-medicamentos-y-productos-sanitarios-parte-2-de-4
p1043
aVhttps://webgate.ec.europa.eu/sr/speech/plan-estrat%C3%A9gico-de-la-agencia-espa%C3%B1ola-de-medicamentos-y-productos-sanitarios-parte-3-de-4
p1044
aVhttps://webgate.ec.europa.eu/sr/speech/plan-estrat%C3%A9gico-de-la-agencia-espa%C3%B1ola-de-medicamentos-y-productos-sanitarios-parte-4-de-4
p1045
aVhttps://webgate.ec.europa.eu/sr/speech/sistema-de-pensiones-en-espa%C3%B1a-parte-1-de-4
p1046
aVhttps://webgate.ec.europa.eu/sr/speech/sistema-de-pensiones-en-espa%C3%B1a-parte-2-de-4
p1047
aVhttps://webgate.ec.europa.eu/sr/speech/inmigraci%C3%B3n-ilegal-en-melilla-parte-1-de-3
p1048
aVhttps://webgate.ec.europa.eu/sr/speech/inmigraci%C3%B3n-ilegal-en-melilla-parte-2-de-3
p1049
aVhttps://webgate.ec.europa.eu/sr/speech/inmigraci%C3%B3n-ilegal-en-melilla-parte-3-de-3
p1050
aVhttps://webgate.ec.europa.eu/sr/speech/informe-sobre-el-consejo-europeo-de-diciembre-de-2009-parte-1de-5
p1051
aVhttps://webgate.ec.europa.eu/sr/speech/informe-sobre-el-consejo-europeo-de-diciembre-de-2009-parte-2-de-5
p1052
aVhttps://webgate.ec.europa.eu/sr/speech/informe-sobre-el-consejo-europeo-de-diciembre-de-2009-parte-3-de-5
p1053
aVhttps://webgate.ec.europa.eu/sr/speech/informe-sobre-el-consejo-europeo-de-diciembre-de-2009-parte-4-de-5
p1054
aVhttps://webgate.ec.europa.eu/sr/speech/informe-sobre-el-consejo-europeo-de-diciembre-de-2009-parte-5-de-5
p1055
aVhttps://webgate.ec.europa.eu/sr/speech/conferencia-de-prensa-ue-asean
p1056
aVhttps://webgate.ec.europa.eu/sr/speech/consejo-de-asociaci%C3%B3n-ue-argelia
p1057
aVhttps://webgate.ec.europa.eu/sr/speech/rueda-de-prensa-del-consejo-de-competitividad-2526-05-2010-parte-2-de-2
p1058
aVhttps://webgate.ec.europa.eu/sr/speech/rueda-de-prensa-del-consejo-de-competitividad-2526-05-2010-parte-1-de-2-0
p1059
aVhttps://webgate.ec.europa.eu/sr/speech/rueda-de-prensa-del-consejo-de-competitividad-2526-05-2010-parte-2-de-2-0
p1060
aVhttps://webgate.ec.europa.eu/sr/speech/rueda-de-prensa-del-consejo-de-competitividad-25-y-26-05-2010-europa-y-el-veh%C3%ADculo-el%C3%A9ctrico
p1061
aVhttps://webgate.ec.europa.eu/sr/speech/consejo-de-asociaci%C3%B3n-de-turqu%C3%ADa-y-la-uni%C3%B3n-europea
p1062
aVhttps://webgate.ec.europa.eu/sr/speech/agenda-digital-europea
p1063
aVhttps://webgate.ec.europa.eu/sr/speech/estrategia-2020
p1064
aVhttps://webgate.ec.europa.eu/sr/speech/rueda-de-prensa-del-consejo-de-competitividad-2526-05-2010-parte-1-de-2
p1065
aVhttps://webgate.ec.europa.eu/sr/speech/rueda-de-prensa-ecofin-parte-1-de-2
p1066
aVhttps://webgate.ec.europa.eu/sr/speech/rueda-de-prensa-ecofin-parte-2-de-2
p1067
aVhttps://webgate.ec.europa.eu/sr/speech/primera-rueda-de-prensa-del-consejo-epsco
p1068
aVhttps://webgate.ec.europa.eu/sr/speech/segunda-rueda-de-prensa-del-consejo-epsco
p1069
aVhttps://webgate.ec.europa.eu/sr/speech/segunda-rueda-de-prensa-del-consejo-epsco-0
p1070
aVhttps://webgate.ec.europa.eu/sr/speech/rueda-de-prensa-del-ministro-de-interior
p1071
aVhttps://webgate.ec.europa.eu/sr/speech/debate-sobre-el-estado-de-la-naci%C3%B3n-intervenci%C3%B3n-de-mariano-rajoy-parte-1-de-2
p1072
aVhttps://webgate.ec.europa.eu/sr/speech/debate-sobre-el-estado-de-la-naci%C3%B3n-intervenci%C3%B3n-de-mariano-rajoy-parte-2-de-2
p1073
aVhttps://webgate.ec.europa.eu/sr/speech/pol%C3%ADtica-de-cultura-del-gobierno-espa%C3%B1ol
p1074
aVhttps://webgate.ec.europa.eu/sr/speech/proyectos-del-ministerio-de-cultura
p1075
aVhttps://webgate.ec.europa.eu/sr/speech/pol%C3%ADtica-para-discapacitados
p1076
aVhttps://webgate.ec.europa.eu/sr/speech/integraci%C3%B3n-social-de-personas-con-capacidad-intelectual-l%C3%ADmite
p1077
aVhttps://webgate.ec.europa.eu/sr/speech/salvar-el-barrio-del-cabanyal-valencia
p1078
aVhttps://webgate.ec.europa.eu/sr/speech/la-pol%C3%ADtica-de-cultura-durante-la-presidencia-espa%C3%B1ola-de-la-uni%C3%B3n-europea
p1079
aVhttps://webgate.ec.europa.eu/sr/speech/%C2%BFc%C3%B3mo-garantizar-los-derechos-de-propiedad-intelectual-en-la-era-de-internet
p1080
aVhttps://webgate.ec.europa.eu/sr/speech/posible-traslado-del-guernica-de-picasso
p1081
aVhttps://webgate.ec.europa.eu/sr/speech/tci-para-la-eficacia-energ%C3%A9tica-en-las-ciudades
p1082
aVhttps://webgate.ec.europa.eu/sr/speech/pacto-de-alcaldes-sesi%C3%B3n-i-ahorrar-energ%C3%ADa-y-ser-m%C3%A1s-eficientes
p1083
aVhttps://webgate.ec.europa.eu/sr/speech/covenanto-de-alcaldes-sesi%C3%B3n-i-las-ciudades-en-la-lucha-contra-el-cambio-clim%C3%A1tico
p1084
aVhttps://webgate.ec.europa.eu/sr/speech/el-pacto-de-alcaldessesi%C3%B3n-iii-el-nivel-local-frente-al-reto-del-cambio-clim%C3%A1tico
p1085
aVhttps://webgate.ec.europa.eu/sr/speech/elecci%C3%B3n-de-van-rompuy-y-ashton
p1086
aVhttps://webgate.ec.europa.eu/sr/speech/conferencia-de-prensa-consejo-europeo
p1087
aVhttps://webgate.ec.europa.eu/sr/speech/las-relaciones-entre-la-uni%C3%B3n-europea-y-los-pa%C3%ADses-de-%C3%A1frica-del-caribe-y-del-pac%C3%ADfico
p1088
aVhttps://webgate.ec.europa.eu/sr/speech/plan-de-recuperaci%C3%B3n-econ%C3%B3mica
p1089
aVhttps://webgate.ec.europa.eu/sr/speech/diabetes
p1090
aVhttps://webgate.ec.europa.eu/sr/speech/debate-sobre-el-futuro-de-la-energ%C3%ADa
p1091
aVhttps://webgate.ec.europa.eu/sr/speech/las-islas-canarias
p1092
aVhttps://webgate.ec.europa.eu/sr/speech/cafe%C3%ADna-y-alucinaciones
p1093
aVhttps://webgate.ec.europa.eu/sr/speech/alimentos-desperdiciados
p1094
aVhttps://webgate.ec.europa.eu/sr/speech/psicof%C3%A1rmacos-las-nuevas-drogas
p1095
aVhttps://webgate.ec.europa.eu/sr/speech/los-peligros-del-tel%C3%A9fono-m%C3%B3vil
p1096
aVhttps://webgate.ec.europa.eu/sr/speech/candidatura-de-madrid-para-los-juegos-ol%C3%ADmpicos
p1097
aVhttps://webgate.ec.europa.eu/sr/speech/el-covento-de-alcaldes-ceremonia
p1098
aVhttps://webgate.ec.europa.eu/sr/speech/el-covento-de-la-alcaldes-ceremonia
p1099
aVhttps://webgate.ec.europa.eu/sr/speech/los-coches-el%C3%A9ctricos
p1100
aVhttps://webgate.ec.europa.eu/sr/speech/fomento-de-la-movilidad-de-los-j%C3%B3venes-en-europa
p1101
aVhttps://webgate.ec.europa.eu/sr/speech/marco-jur%C3%ADdico-de-las-comunicaciones-electr%C3%B3nicas
p1102
aVhttps://webgate.ec.europa.eu/sr/speech/fomento-de-la-movilidad-de-los-j%C3%B3venes-en-europa-parte-2-de-2
p1103
aVhttps://webgate.ec.europa.eu/sr/speech/emu10-los-diez-primeros-a%C3%B1os-de-la-uni%C3%B3n-econ%C3%B3mica-y-monetaria-comunicaci%C3%B3n-de-la-comisi%C3%B3n
p1104
aVhttps://webgate.ec.europa.eu/sr/speech/estrategia-de-lisboa-grandes-orientaciones-de-las-pol%C3%ADticas-econ%C3%B3micas-para-2008
p1105
aVhttps://webgate.ec.europa.eu/sr/speech/urbanizaciones-de-inter%C3%A9s-com%C3%BAn
p1106
aVhttps://webgate.ec.europa.eu/sr/speech/refugiados-clim%C3%A1ticos
p1107
aVhttps://webgate.ec.europa.eu/sr/speech/el-futuro-de-la-evoluci%C3%B3n-del-ser-humano
p1108
aVhttps://webgate.ec.europa.eu/sr/speech/el-euro-y-el-d%C3%B3lar
p1109
aVhttps://webgate.ec.europa.eu/sr/speech/inflaci%C3%B3n-en-el-siglo-xxi
p1110
aVhttps://webgate.ec.europa.eu/sr/speech/energ%C3%ADa-e%C3%B3lica
p1111
aVhttps://webgate.ec.europa.eu/sr/speech/dieta-sana
p1112
aVhttps://webgate.ec.europa.eu/sr/speech/el-hombre-de-atapuerca
p1113
aVhttps://webgate.ec.europa.eu/sr/speech/congreso-de-los-diputados-sesi%C3%B3n-plenaria-12
p1114
aVhttps://webgate.ec.europa.eu/sr/speech/comisi%C3%B3n-de-asuntos-exteriores
p1115
aVhttps://webgate.ec.europa.eu/sr/speech/comisi%C3%B3n-de-asuntos-exteriores-0
p1116
aVhttps://webgate.ec.europa.eu/sr/speech/sesi%C3%B3n-de-investidura-del-presidente-del-gobierno
p1117
aVhttps://webgate.ec.europa.eu/sr/speech/sesi%C3%B3n-de-investidura-del-presidente-del-gobierno-parte-1-de-2
p1118
aVhttps://webgate.ec.europa.eu/sr/speech/sesi%C3%B3n-de-investidura-del-presidente-del-gobierno-parte-2-de-2
p1119
aVhttps://webgate.ec.europa.eu/sr/speech/congreso-de-los-diputados-sesi%C3%B3n-plenaria-9
p1120
aVhttps://webgate.ec.europa.eu/sr/speech/congreso-de-los-diputados-sesi%C3%B3n-plenaria-10
p1121
aVhttps://webgate.ec.europa.eu/sr/speech/congreso-de-los-diputados-sesi%C3%B3n-plenaria-11
p1122
aVhttps://webgate.ec.europa.eu/sr/speech/congreso-de-los-diputados-sesi%C3%B3n-plenaria-1
p1123
aVhttps://webgate.ec.europa.eu/sr/speech/congreso-de-los-diputados-sesi%C3%B3n-plenaria-2
p1124
aVhttps://webgate.ec.europa.eu/sr/speech/congreso-de-los-diputados-sesi%C3%B3n-plenaria-6
p1125
aVhttps://webgate.ec.europa.eu/sr/speech/congreso-de-los-diputados-sesi%C3%B3n-plenaria
p1126
aVhttps://webgate.ec.europa.eu/sr/speech/congreso-de-los-diputados-sesi%C3%B3n-plenaria-0
p1127
aVhttps://webgate.ec.europa.eu/sr/speech/annual-conference-scic-universities-parte-1-de-3
p1128
aVhttps://webgate.ec.europa.eu/sr/speech/annual-conference-scic-universities-parte-de-2-de-3
p1129
aVhttps://webgate.ec.europa.eu/sr/speech/annual-conference-scic-universities-parte-3-de-3
p1130
aVhttps://webgate.ec.europa.eu/sr/speech/valor-econ%C3%B3mico-de-la-lengua-espa%C3%B1ola
p1131
aVhttps://webgate.ec.europa.eu/sr/speech/sue%C3%B1o-sue%C3%B1os-y-pesadillas
p1132
aVhttps://webgate.ec.europa.eu/sr/speech/debate-sobre-la-vi-legislatura-2
p1133
aVhttps://webgate.ec.europa.eu/sr/speech/debate-sobre-la-vi-legislatura-3
p1134
aVhttps://webgate.ec.europa.eu/sr/speech/consejo-de-medio-ambiente
p1135
aVhttps://webgate.ec.europa.eu/sr/speech/debate-sobre-la-vi-legislatura-1
p1136
aVhttps://webgate.ec.europa.eu/sr/speech/parlamento-canario-debate-sobre-la-vi-legislatura
p1137
aVhttps://webgate.ec.europa.eu/sr/speech/parlamento-canario-debate-sobre-la-vi-legislatura-0
p1138
aVhttps://webgate.ec.europa.eu/sr/speech/debate-sobre-la-vi-legislatura
p1139
aVhttps://webgate.ec.europa.eu/sr/speech/debate-sobre-la-vi-legislatura-0
p1140
aVhttps://webgate.ec.europa.eu/sr/speech/consejo-medio-ambiente
p1141
aVhttps://webgate.ec.europa.eu/sr/speech/v-conferencia-europea-de-ciudades-y-pueblos-sostenibles-4
p1142
aVhttps://webgate.ec.europa.eu/sr/speech/v-conferencia-europea-de-ciudades-y-pueblos-sostenibles-5
p1143
aVhttps://webgate.ec.europa.eu/sr/speech/v-conferencia-europea-de-ciudades-y-pueblos-sostenibles-6
p1144
aVhttps://webgate.ec.europa.eu/sr/speech/v-conferencia-europea-de-ciudades-y-pueblos-sostenibles
p1145
aVhttps://webgate.ec.europa.eu/sr/speech/v-conferencia-europea-de-ciudades-y-pueblos-sostenibles-0
p1146
aVhttps://webgate.ec.europa.eu/sr/speech/v-conferencia-europea-de-ciudades-y-pueblos-sostenibles-1
p1147
aVhttps://webgate.ec.europa.eu/sr/speech/v-conferencia-europea-de-ciudades-y-pueblos-sostenibles-2
p1148
aVhttps://webgate.ec.europa.eu/sr/speech/v-conferencia-europea-de-ciudades-y-pueblos-sostenibles-3
p1149
aVhttps://webgate.ec.europa.eu/sr/speech/el-tango-y-sus-or%C3%ADgenes
p1150
aVhttps://webgate.ec.europa.eu/sr/speech/buenos-aires
p1151
as.